(dp0
S'669'
p1
(dp2
S'216'
p3
F3.1579417224516932
sS'22'
p4
F5.000000000000001
sS'23'
p5
F3.8319931219922907
sS'348'
p6
F0.0
sS'664'
p7
F3.758208935660809
sS'133'
p8
F3.6162998084055347
sS'132'
p9
F3.8400026112053407
sS'347'
p10
F1.0
sS'340'
p11
F0.0
sS'490'
p12
F3.6402669796046396
ssS'668'
p13
(dp14
S'882'
p15
F0.0
sS'210'
p16
F2.378149657434165
sS'596'
p17
F0.0
sS'554'
p18
F2.0
sS'311'
p19
F4.0
sS'50'
p20
F0.0
sS'333'
p21
F4.0
sS'271'
p22
F0.0
sS'258'
p23
F0.0
sS'137'
p24
F0.0
ssS'667'
p25
(dp26
S'216'
p27
F0.0
sS'318'
p28
F0.0
sS'210'
p29
F0.0
sS'313'
p30
F0.0
sS'197'
p31
F5.0
sS'196'
p32
F0.0
sS'316'
p33
F4.330529981562281
sS'315'
p34
F0.0
sS'192'
p35
F0.0
sS'272'
p36
F0.0
ssS'666'
p37
(dp38
S'216'
p39
F3.732396952965979
sS'213'
p40
F3.7684006182496224
sS'210'
p41
F3.1273037691523573
sS'211'
p42
F3.8909401036827567
sS'760'
p43
F0.0
sS'663'
p44
F3.952295066297044
sS'1266'
p45
F4.0
sS'661'
p46
F4.136410680391544
sS'66'
p47
F3.4275309018984785
sS'127'
p48
F4.0091230884894244
ssS'665'
p49
(dp50
S'216'
p51
F3.506075186441943
sS'214'
p52
F3.5048375111783923
sS'215'
p53
F3.79266401813665
sS'135'
p54
F3.6548944957096006
sS'210'
p55
F4.026933930827696
sS'762'
p56
F0.0
sS'763'
p57
F3.6860698618072405
sS'660'
p58
F3.0
sS'133'
p59
F3.4130493281538348
sS'265'
p60
F3.506999046646838
ssS'664'
p61
(dp62
S'215'
p63
F3.0
sS'212'
p64
F0.0
sS'210'
p65
F0.0
sS'664'
p66
F3.5257077484369503
sS'663'
p67
F4.681123875021378
sS'764'
p68
F1.0
sS'660'
p69
F2.7122983304582826
sS'132'
p70
F3.5613153907069908
sS'137'
p71
F5.0
sS'134'
p72
F4.0
ssS'663'
p73
(dp74
S'693'
p75
F4.11420311669567
sS'696'
p76
F0.0
sS'210'
p77
F4.0
sS'23'
p78
F4.191515835394249
sS'762'
p79
F4.0
sS'763'
p80
F3.7465255619852686
sS'1073'
p81
F3.0
sS'289'
p82
F0.0
sS'288'
p83
F0.0
sS'134'
p84
F4.6081436673152485
ssS'662'
p85
(dp86
S'591'
p87
F3.8473618758878807
sS'319'
p88
F0.0
sS'1342'
p89
F5.0
sS'985'
p90
F0.0
sS'275'
p91
F5.0
sS'276'
p92
F0.0
sS'6'
p93
F0.0
sS'1652'
p94
F0.0
sS'93'
p95
F4.643862608750255
sS'813'
p96
F5.0
ssS'661'
p97
(dp98
S'216'
p99
F4.0
sS'215'
p100
F0.0
sS'210'
p101
F5.0
sS'762'
p102
F4.0
sS'665'
p103
F0.0
sS'218'
p104
F0.0
sS'219'
p105
F0.0
sS'132'
p106
F0.0
sS'131'
p107
F0.0
sS'228'
p108
F5.0
ssS'660'
p109
(dp110
S'216'
p111
F2.8515696538924478
sS'217'
p112
F3.020608627178521
sS'215'
p113
F2.7631325054977474
sS'210'
p114
F3.1508235621451837
sS'211'
p115
F2.8326771454063624
sS'663'
p116
F2.766278251538603
sS'219'
p117
F2.25893174361883
sS'132'
p118
F3.7042838784001764
sS'135'
p119
F4.0096743125439955
sS'134'
p120
F3.717247870086771
ssS'578'
p121
(dp122
S'288'
p123
F0.0
sS'313'
p124
F0.0
sS'272'
p125
F0.0
sS'1264'
p126
F3.0
sS'323'
p127
F2.9999999999999996
sS'346'
p128
F1.644998115656798
sS'324'
p129
F0.0
sS'343'
p130
F3.0
sS'1016'
p131
F3.0
sS'250'
p132
F0.0
ssS'692'
p133
(dp134
S'692'
p135
F0.0
sS'25'
p136
F0.0
sS'204'
p137
F4.0
sS'211'
p138
F0.0
sS'762'
p139
F3.7527214547158336
sS'763'
p140
F3.6235669105680066
sS'238'
p141
F3.0
sS'66'
p142
F3.631214543581188
sS'194'
p143
F3.0
sS'257'
p144
F0.0
ssS'693'
p145
(dp146
S'216'
p147
F3.064529175080092
sS'215'
p148
F2.8696867257962677
sS'210'
p149
F2.980519185993315
sS'1145'
p150
F2.6047949465998146
sS'664'
p151
F3.0
sS'662'
p152
F0.0
sS'218'
p153
F2.9619798758128772
sS'660'
p154
F0.0
sS'132'
p155
F3.237278951012765
sS'131'
p156
F3.0
ssS'690'
p157
(dp158
S'216'
p159
F3.400155152500654
sS'25'
p160
F2.7712086546149144
sS'210'
p161
F4.3961412361275904
sS'211'
p162
F3.104478585083623
sS'763'
p163
F3.423176126151009
sS'663'
p164
F3.9178196177031386
sS'218'
p165
F2.6683981906119407
sS'546'
p166
F3.0
sS'90'
p167
F2.7622878226217646
sS'496'
p168
F3.8187742425880784
ssS'691'
p169
(dp170
S'692'
p171
F0.0
sS'604'
p172
F4.0
sS'318'
p173
F0.0
sS'603'
p174
F0.0
sS'748'
p175
F0.0
sS'322'
p176
F0.0
sS'64'
p177
F0.0
sS'178'
p178
F4.0
sS'496'
p179
F0.0
sS'170'
p180
F4.0
ssS'696'
p181
(dp182
S'883'
p183
F2.7586044128504406
sS'313'
p184
F0.0
sS'312'
p185
F2.31745817101903
sS'311'
p186
F5.0
sS'310'
p187
F0.0
sS'315'
p188
F0.0
sS'344'
p189
F0.0
sS'748'
p190
F0.0
sS'178'
p191
F3.628873942745578
sS'234'
p192
F0.0
ssS'697'
p193
(dp194
S'25'
p195
F0.0
sS'763'
p196
F0.0
sS'818'
p197
F0.0
sS'288'
p198
F0.0
sS'546'
p199
F0.0
sS'343'
p200
F4.0
sS'280'
p201
F0.0
sS'283'
p202
F0.0
sS'282'
p203
F0.0
sS'284'
p204
F0.0
ssS'694'
p205
(dp206
S'216'
p207
F0.0
sS'1269'
p208
F4.0
sS'215'
p209
F4.0
sS'210'
p210
F5.0
sS'211'
p211
F4.243192091339173
sS'1263'
p212
F0.0
sS'665'
p213
F0.0
sS'663'
p214
F5.0
sS'661'
p215
F4.404690644706151
sS'660'
p216
F0.0
ssS'695'
p217
(dp218
S'882'
p219
F0.0
sS'319'
p220
F0.0
sS'989'
p221
F2.0
sS'887'
p222
F4.0
sS'338'
p223
F0.0
sS'313'
p224
F0.0
sS'312'
p225
F1.0
sS'311'
p226
F3.0
sS'333'
p227
F0.0
sS'264'
p228
F0.0
ssS'698'
p229
(dp230
S'214'
p231
F0.0
sS'210'
p232
F2.5661678238490517
sS'211'
p233
F3.0323958638188198
sS'1149'
p234
F2.519341137535571
sS'663'
p235
F3.714574831554318
sS'662'
p236
F1.0
sS'133'
p237
F2.9741666158659417
sS'132'
p238
F2.8667265433277143
sS'131'
p239
F0.0
sS'498'
p240
F2.4257143150887948
ssS'699'
p241
(dp242
S'24'
p243
F3.3411674063309413
sS'1143'
p244
F0.0
sS'20'
p245
F3.0000000000000004
sS'211'
p246
F3.0879228472304794
sS'762'
p247
F3.037321629757064
sS'760'
p248
F2.0
sS'764'
p249
F0.0
sS'1'
p250
F0.0
sS'137'
p251
F4.0
sS'495'
p252
F3.380694795771569
ssS'608'
p253
(dp254
S'216'
p255
F3.941934048384029
sS'215'
p256
F2.928689078123311
sS'213'
p257
F3.705341411479449
sS'1262'
p258
F0.0
sS'661'
p259
F4.204238988346184
sS'660'
p260
F0.0
sS'133'
p261
F3.6221049186323717
sS'132'
p262
F3.169324210330914
sS'131'
p263
F3.4484154563757907
sS'499'
p264
F4.034913047776498
ssS'571'
p265
(dp266
S'964'
p267
F0.0
sS'604'
p268
F3.6143608860718914
sS'144'
p269
F3.1729856026160546
sS'47'
p270
F0.0
sS'45'
p271
F3.0586344412994615
sS'191'
p272
F3.712620156967784
sS'462'
p273
F0.0
sS'357'
p274
F4.0
sS'114'
p275
F4.0
sS'484'
p276
F4.0
ssS'570'
p277
(dp278
S'690'
p279
F0.0
sS'886'
p280
F0.0
sS'271'
p281
F4.0
sS'748'
p282
F0.0
sS'879'
p283
F0.0
sS'289'
p284
F0.0
sS'288'
p285
F4.0
sS'258'
p286
F0.0
sS'321'
p287
F0.0
sS'326'
p288
F3.4076664282497546
ssS'678'
p289
(dp290
S'1129'
p291
F0.0
sS'742'
p292
F0.0
sS'25'
p293
F0.0
sS'332'
p294
F0.0
sS'117'
p295
F0.0
sS'111'
p296
F0.0
sS'275'
p297
F0.0
sS'276'
p298
F0.0
sS'277'
p299
F3.1853516462536384
sS'237'
p300
F0.0
ssS'679'
p301
(dp302
S'153'
p303
F0.0
sS'318'
p304
F0.0
sS'63'
p305
F0.0
sS'154'
p306
F0.0
sS'748'
p307
F0.0
sS'196'
p308
F0.0
sS'42'
p309
F0.0
sS'132'
p310
F0.0
sS'215'
p311
F0.0
sS'64'
p312
F3.664546080441246
ssS'719'
p313
(dp314
S'216'
p315
F0.0
sS'742'
p316
F2.0
sS'318'
p317
F0.0
sS'214'
p318
F0.0
sS'456'
p319
F1.0
sS'660'
p320
F2.7421674345664546
sS'392'
p321
F3.674580250530097
sS'71'
p322
F0.0
sS'281'
p323
F2.0
sS'510'
p324
F3.0
ssS'718'
p325
(dp326
S'591'
p327
F0.0
sS'1165'
p328
F0.0
sS'742'
p329
F0.0
sS'744'
p330
F5.0
sS'597'
p331
F0.0
sS'982'
p332
F2.822956275465667
sS'273'
p333
F0.0
sS'111'
p334
F0.0
sS'118'
p335
F4.0
sS'255'
p336
F0.0
ssS'674'
p337
(dp338
S'151'
p339
F0.0
sS'742'
p340
F4.0
sS'597'
p341
F0.0
sS'313'
p342
F0.0
sS'763'
p343
F0.0
sS'315'
p344
F0.0
sS'289'
p345
F0.0
sS'117'
p346
F4.0
sS'111'
p347
F2.9999999999999996
sS'252'
p348
F3.0
ssS'675'
p349
(dp350
S'318'
p351
F0.0
sS'312'
p352
F0.0
sS'311'
p353
F4.0
sS'344'
p354
F4.0
sS'258'
p355
F0.0
sS'347'
p356
F0.0
sS'1255'
p357
F0.0
sS'235'
p358
F0.0
sS'86'
p359
F0.0
sS'874'
p360
F0.0
ssS'676'
p361
(dp362
S'1234'
p363
F0.0
sS'144'
p364
F0.0
sS'318'
p365
F0.0
sS'748'
p366
F0.0
sS'315'
p367
F0.0
sS'1483'
p368
F1.0
sS'271'
p369
F0.0
sS'117'
p370
F0.0
sS'259'
p371
F0.0
sS'64'
p372
F0.0
ssS'714'
p373
(dp374
S'151'
p375
F0.0
sS'597'
p376
F4.350781026836052
sS'748'
p377
F0.0
sS'763'
p378
F0.0
sS'1028'
p379
F5.0
sS'252'
p380
F0.0
sS'117'
p381
F4.462609582989105
sS'111'
p382
F0.0
sS'276'
p383
F0.0
sS'281'
p384
F3.2010956183275803
ssS'713'
p385
(dp386
S'752'
p387
F2.2610437914510086
sS'690'
p388
F3.0
sS'882'
p389
F0.0
sS'313'
p390
F0.0
sS'311'
p391
F3.0
sS'310'
p392
F3.2192001592329493
sS'315'
p393
F3.489365764981305
sS'1127'
p394
F0.0
sS'270'
p395
F4.17476335671943
sS'272'
p396
F4.0
ssS'712'
p397
(dp398
S'768'
p399
F3.441816152904463
sS'215'
p400
F5.0
sS'213'
p401
F3.485954006464097
sS'210'
p402
F5.0
sS'762'
p403
F0.0
sS'42'
p404
F0.0
sS'662'
p405
F0.0
sS'660'
p406
F0.0
sS'498'
p407
F2.0
sS'136'
p408
F0.0
ssS'672'
p409
(dp410
S'25'
p411
F0.0
sS'1190'
p412
F0.0
sS'874'
p413
F0.0
sS'864'
p414
F0.0
sS'181'
p415
F0.0
sS'275'
p416
F0.0
sS'225'
p417
F0.0
sS'237'
p418
F0.0
sS'321'
p419
F0.0
sS'255'
p420
F0.0
ssS'710'
p421
(dp422
S'210'
p423
F0.0
sS'22'
p424
F3.875505964815508
sS'23'
p425
F4.0
sS'127'
p426
F0.0
sS'346'
p427
F5.0
sS'340'
p428
F0.0
sS'135'
p429
F0.0
sS'134'
p430
F4.0
sS'496'
p431
F3.9770442220201265
sS'223'
p432
F4.0
ssS'591'
p433
(dp434
S'216'
p435
F3.7594117870483115
sS'740'
p436
F3.0
sS'709'
p437
F3.72079491815533
sS'210'
p438
F3.826242433997878
sS'211'
p439
F3.841583362896338
sS'1120'
p440
F0.0
sS'451'
p441
F2.9999999999999996
sS'196'
p442
F3.553362797484529
sS'191'
p443
F4.999999999999999
sS'662'
p444
F0.0
ssS'590'
p445
(dp446
S'740'
p447
F4.999999999999999
sS'1129'
p448
F4.885745972052015
sS'744'
p449
F0.0
sS'150'
p450
F4.0
sS'130'
p451
F0.0
sS'274'
p452
F0.0
sS'275'
p453
F0.0
sS'276'
p454
F0.0
sS'237'
p455
F0.0
sS'255'
p456
F0.0
ssS'593'
p457
(dp458
S'216'
p459
F3.9907156540567557
sS'210'
p460
F3.9289707382746073
sS'211'
p461
F4.169531690994769
sS'762'
p462
F3.3675810589071973
sS'763'
p463
F3.3356446705586045
sS'761'
p464
F0.0
sS'661'
p465
F4.257646284182
sS'660'
p466
F0.0
sS'133'
p467
F4.37393114564848
sS'131'
p468
F5.0
ssS'592'
p469
(dp470
S'1060'
p471
F3.3325002809422815
sS'344'
p472
F3.2166654455464045
sS'345'
p473
F3.4303273636266667
sS'346'
p474
F0.0
sS'347'
p475
F0.0
sS'340'
p476
F0.0
sS'342'
p477
F0.0
sS'343'
p478
F4.0
sS'813'
p479
F5.0
sS'815'
p480
F4.0
ssS'595'
p481
(dp482
S'1142'
p483
F4.321623947937973
sS'762'
p484
F4.0
sS'763'
p485
F3.0
sS'1264'
p486
F3.2735476342883745
sS'289'
p487
F0.0
sS'288'
p488
F0.0
sS'346'
p489
F4.0
sS'546'
p490
F2.0
sS'547'
p491
F3.0
sS'544'
p492
F0.0
ssS'594'
p493
(dp494
S'988'
p495
F0.0
sS'744'
p496
F0.0
sS'319'
p497
F0.0
sS'181'
p498
F3.0
sS'520'
p499
F4.151677712752942
sS'276'
p500
F0.0
sS'242'
p501
F3.0
sS'199'
p502
F3.923150944620132
sS'269'
p503
F0.0
sS'237'
p504
F0.0
ssS'597'
p505
(dp506
S'151'
p507
F0.0
sS'742'
p508
F5.0
sS'748'
p509
F2.07968599109062
sS'763'
p510
F3.0
sS'988'
p511
F4.0
sS'111'
p512
F0.0
sS'275'
p513
F0.0
sS'127'
p514
F4.670916141541444
sS'235'
p515
F0.0
sS'1016'
p516
F1.6602510554928052
ssS'596'
p517
(dp518
S'13'
p519
F0.0
sS'678'
p520
F0.0
sS'895'
p521
F0.0
sS'313'
p522
F0.0
sS'300'
p523
F0.0
sS'50'
p524
F0.0
sS'149'
p525
F0.0
sS'289'
p526
F0.0
sS'323'
p527
F0.0
sS'222'
p528
F0.0
ssS'599'
p529
(dp530
S'988'
p531
F2.603539431718409
sS'595'
p532
F0.0
sS'748'
p533
F4.0
sS'763'
p534
F3.6991304765075825
sS'888'
p535
F0.0
sS'319'
p536
F0.0
sS'111'
p537
F0.0
sS'276'
p538
F0.0
sS'278'
p539
F0.0
sS'237'
p540
F0.0
ssS'598'
p541
(dp542
S'690'
p543
F5.0
sS'691'
p544
F2.0
sS'22'
p545
F0.0
sS'323'
p546
F0.0
sS'748'
p547
F0.0
sS'312'
p548
F0.0
sS'300'
p549
F0.0
sS'313'
p550
F0.0
sS'258'
p551
F0.0
sS'259'
p552
F0.0
ssS'706'
p553
(dp554
S'24'
p555
F0.0
sS'742'
p556
F0.0
sS'628'
p557
F0.0
sS'331'
p558
F0.0
sS'117'
p559
F0.0
sS'333'
p560
F0.0
sS'258'
p561
F0.0
sS'273'
p562
F0.0
sS'237'
p563
F0.0
sS'118'
p564
F0.0
ssS'707'
p565
(dp566
S'1142'
p567
F4.044979364887471
sS'216'
p568
F3.636479100204548
sS'1141'
p569
F2.0
sS'212'
p570
F2.0
sS'211'
p571
F3.670033279603949
sS'952'
p572
F0.0
sS'663'
p573
F3.8372585800391414
sS'660'
p574
F0.0
sS'133'
p575
F3.4360238650374337
sS'498'
p576
F4.180968448463766
ssS'700'
p577
(dp578
S'144'
p579
F0.0
sS'202'
p580
F0.0
sS'48'
p581
F0.0
sS'56'
p582
F0.0
sS'28'
p583
F4.0
sS'50'
p584
F4.0
sS'98'
p585
F0.0
sS'180'
p586
F0.0
sS'318'
p587
F0.0
sS'181'
p588
F0.0
ssS'701'
p589
(dp590
S'313'
p591
F0.0
sS'312'
p592
F4.0
sS'311'
p593
F4.0
sS'316'
p594
F5.0
sS'315'
p595
F0.0
sS'272'
p596
F0.0
sS'275'
p597
F0.0
sS'269'
p598
F0.0
sS'237'
p599
F0.0
sS'257'
p600
F0.0
ssS'702'
p601
(dp602
S'751'
p603
F0.0
sS'271'
p604
F0.0
sS'748'
p605
F0.0
sS'879'
p606
F0.0
sS'690'
p607
F0.0
sS'1127'
p608
F0.0
sS'313'
p609
F0.0
sS'258'
p610
F0.0
sS'259'
p611
F0.0
sS'230'
p612
F5.0
ssS'703'
p613
(dp614
S'591'
p615
F4.0
sS'458'
p616
F1.0
sS'742'
p617
F0.0
sS'596'
p618
F0.0
sS'748'
p619
F0.0
sS'628'
p620
F0.0
sS'50'
p621
F0.0
sS'764'
p622
F0.0
sS'258'
p623
F0.0
sS'276'
p624
F0.0
ssS'619'
p625
(dp626
S'27'
p627
F0.0
sS'22'
p628
F5.0
sS'121'
p629
F0.0
sS'665'
p630
F3.2428011313606246
sS'29'
p631
F2.5115489814289376
sS'406'
p632
F3.0
sS'346'
p633
F5.0
sS'1314'
p634
F0.0
sS'403'
p635
F3.4519909307414474
sS'281'
p636
F3.8252891026965434
ssS'605'
p637
(dp638
S'215'
p639
F4.0
sS'22'
p640
F3.456066933413377
sS'210'
p641
F4.329253104884395
sS'288'
p642
F0.0
sS'133'
p643
F2.6838713595351043
sS'132'
p644
F4.367582314874178
sS'405'
p645
F2.0
sS'137'
p646
F3.996528372879059
sS'135'
p647
F3.881329137528699
sS'496'
p648
F4.628918613687071
ssS'569'
p649
(dp650
S'458'
p651
F3.0
sS'151'
p652
F0.0
sS'748'
p653
F0.0
sS'258'
p654
F0.0
sS'333'
p655
F0.0
sS'455'
p656
F0.0
sS'117'
p657
F3.0
sS'273'
p658
F0.0
sS'111'
p659
F3.6717033347170336
sS'281'
p660
F0.0
ssS'604'
p661
(dp662
S'201'
p663
F0.0
sS'558'
p664
F3.3366790311587176
sS'48'
p665
F0.0
sS'183'
p666
F0.0
sS'218'
p667
F0.0
sS'288'
p668
F0.0
sS'5'
p669
F4.0
sS'7'
p670
F0.0
sS'185'
p671
F0.0
sS'234'
p672
F0.0
ssS'613'
p673
(dp674
S'632'
p675
F5.0
sS'318'
p676
F4.599350567034939
sS'603'
p677
F4.504129879605998
sS'194'
p678
F4.5388403525984415
sS'50'
p679
F4.0
sS'272'
p680
F4.447033463541981
sS'89'
p681
F0.0
sS'64'
p682
F4.388159702407372
sS'279'
p683
F0.0
sS'607'
p684
F3.8651691654397826
ssS'610'
p685
(dp686
S'591'
p687
F3.576877444038255
sS'216'
p688
F3.4251223737999386
sS'153'
p689
F2.889824419967461
sS'318'
p690
F4.760499377806717
sS'210'
p691
F3.9737327153803594
sS'313'
p692
F5.0
sS'705'
p693
F4.030241943854126
sS'331'
p694
F2.823679543190355
sS'71'
p695
F3.423315920236314
sS'70'
p696
F3.240489625819616
ssS'607'
p697
(dp698
S'56'
p699
F0.0
sS'212'
p700
F0.0
sS'213'
p701
F3.514953074342022
sS'211'
p702
F4.332961639260013
sS'311'
p703
F4.0
sS'707'
p704
F4.0
sS'498'
p705
F4.0
sS'275'
p706
F3.781512540650955
sS'494'
p707
F4.33921729539367
sS'887'
p708
F0.0
ssS'586'
p709
(dp710
S'217'
p711
F3.86352423328813
sS'215'
p712
F2.6765488045907926
sS'210'
p713
F3.0477349112450547
sS'763'
p714
F3.5822785322292368
sS'665'
p715
F2.969572232980828
sS'761'
p716
F0.0
sS'218'
p717
F3.446100193412601
sS'219'
p718
F3.7376668963105666
sS'227'
p719
F4.0
sS'496'
p720
F3.425832256288324
ssS'587'
p721
(dp722
S'690'
p723
F3.152548386010227
sS'691'
p724
F0.0
sS'1265'
p725
F0.0
sS'289'
p726
F0.0
sS'288'
p727
F3.0
sS'347'
p728
F4.0
sS'340'
p729
F3.5224782940643813
sS'342'
p730
F3.875456851093772
sS'343'
p731
F3.4296870556892305
sS'937'
p732
F3.537471967380224
ssS'584'
p733
(dp734
S'25'
p735
F0.0
sS'313'
p736
F0.0
sS'450'
p737
F0.0
sS'40'
p738
F0.0
sS'161'
p739
F0.0
sS'114'
p740
F1.400348950094706
sS'258'
p741
F0.0
sS'82'
p742
F0.0
sS'230'
p743
F5.0
sS'172'
p744
F4.0
ssS'585'
p745
(dp746
S'740'
p747
F0.0
sS'1323'
p748
F4.0
sS'212'
p749
F3.337152032097645
sS'1121'
p750
F0.0
sS'557'
p751
F0.0
sS'707'
p752
F4.188246072509929
sS'1344'
p753
F0.0
sS'1266'
p754
F4.094183895025775
sS'1485'
p755
F3.2457194000419713
sS'165'
p756
F3.9146596255394703
ssS'582'
p757
(dp758
S'458'
p759
F3.0
sS'151'
p760
F0.0
sS'742'
p761
F0.0
sS'597'
p762
F3.0
sS'748'
p763
F0.0
sS'763'
p764
F0.0
sS'760'
p765
F1.0
sS'455'
p766
F0.0
sS'271'
p767
F0.0
sS'269'
p768
F0.0
ssS'583'
p769
(dp770
S'708'
p771
F0.0
sS'198'
p772
F0.0
sS'602'
p773
F5.0
sS'195'
p774
F0.0
sS'663'
p775
F0.0
sS'258'
p776
F0.0
sS'239'
p777
F0.0
sS'276'
p778
F0.0
sS'83'
p779
F0.0
sS'175'
p780
F0.0
ssS'580'
p781
(dp782
S'151'
p783
F0.0
sS'597'
p784
F0.0
sS'748'
p785
F0.0
sS'455'
p786
F0.0
sS'50'
p787
F0.0
sS'271'
p788
F0.0
sS'258'
p789
F0.0
sS'252'
p790
F2.0
sS'250'
p791
F0.0
sS'871'
p792
F0.0
ssS'581'
p793
(dp794
g670
F0.0
sS'137'
p795
F0.0
sS'1375'
p796
F3.9172454370889818
sS'181'
p797
F4.0
sS'919'
p798
F4.0
sS'275'
p799
F0.0
sS'276'
p800
F0.0
sS'9'
p801
F0.0
sS'253'
p802
F4.0
sS'100'
p803
F0.0
ssS'588'
p804
(dp805
S'216'
p806
F3.857191919947764
sS'217'
p807
F3.707450619814951
sS'215'
p808
F3.847372358233889
sS'210'
p809
F3.9257331372925655
sS'762'
p810
F3.492837202353181
sS'660'
p811
F2.7328285559762038
sS'133'
p812
F3.5534645880103084
sS'132'
p813
F3.6510558177952728
sS'131'
p814
F5.0
sS'735'
p815
F4.13028061695318
ssS'589'
p816
(dp817
S'751'
p818
F0.0
sS'339'
p819
F4.321781708358785
sS'338'
p820
F0.0
sS'313'
p821
F0.0
sS'749'
p822
F0.0
sS'310'
p823
F0.0
sS'333'
p824
F0.0
sS'332'
p825
F0.0
sS'271'
p826
F0.0
sS'272'
p827
F0.0
ssS'615'
p828
(dp829
S'216'
p830
F0.0
sS'26'
p831
F0.0
sS'215'
p832
F0.0
sS'213'
p833
F0.0
sS'22'
p834
F0.0
sS'211'
p835
F4.0
sS'666'
p836
F0.0
sS'23'
p837
F0.0
sS'660'
p838
F0.0
sS'135'
p839
F0.0
ssS'641'
p840
(dp841
S'338'
p842
F0.0
sS'336'
p843
F0.0
sS'192'
p844
F4.21946334946819
sS'270'
p845
F0.0
sS'258'
p846
F0.0
sS'89'
p847
F3.0
sS'64'
p848
F0.0
sS'134'
p849
F0.0
sS'83'
p850
F0.0
sS'496'
p851
F0.0
ssS'640'
p852
(dp853
S'693'
p854
F4.0
sS'214'
p855
F0.0
sS'691'
p856
F3.9756308986539817
sS'210'
p857
F0.0
sS'22'
p858
F5.0
sS'761'
p859
F3.0
sS'663'
p860
F0.0
sS'1073'
p861
F5.000000000000001
sS'134'
p862
F0.0
sS'496'
p863
F0.0
ssS'643'
p864
(dp865
S'216'
p866
F4.0468903789092705
sS'215'
p867
F4.1012297979541295
sS'210'
p868
F3.7049692442304822
sS'211'
p869
F4.10347274602408
sS'665'
p870
F2.685119633169576
sS'1149'
p871
F0.0
sS'663'
p872
F4.183417782936251
sS'218'
p873
F3.4693870691969977
sS'219'
p874
F3.071164061218148
sS'132'
p875
F4.354674657770137
ssS'642'
p876
(dp877
S'216'
p878
F4.056273818028608
sS'217'
p879
F5.0
sS'579'
p880
F3.703553286808177
sS'769'
p881
F3.196533936794639
sS'1146'
p882
F3.191983956450544
sS'210'
p883
F4.53821285053877
sS'313'
p884
F3.0
sS'452'
p885
F3.7850423727889244
sS'768'
p886
F3.597663301095805
sS'218'
p887
F3.639366812878577
ssS'645'
p888
(dp889
S'216'
p890
F4.3806525998252175
sS'214'
p891
F3.416760787961333
sS'212'
p892
F4.0
sS'22'
p893
F3.5742620903444506
sS'211'
p894
F4.419910628279807
sS'664'
p895
F4.709652262592349
sS'660'
p896
F3.0000000000000004
sS'135'
p897
F4.182569437711035
sS'134'
p898
F4.414583950205237
sS'496'
p899
F4.33726417835265
ssS'644'
p900
(dp901
S'988'
p902
F4.0
sS'597'
p903
F4.486171542432751
sS'748'
p904
F4.64010466963646
sS'117'
p905
F0.0
sS'330'
p906
F0.0
sS'333'
p907
F0.0
sS'457'
p908
F0.0
sS'258'
p909
F0.0
sS'259'
p910
F4.0
sS'276'
p911
F0.0
ssS'647'
p912
(dp913
S'604'
p914
F4.0
sS'742'
p915
F0.0
sS'213'
p916
F0.0
sS'147'
p917
F0.0
sS'748'
p918
F0.0
sS'554'
p919
F0.0
sS'197'
p920
F0.0
sS'196'
p921
F0.0
sS'82'
p922
F0.0
sS'1016'
p923
F0.0
ssS'646'
p924
(dp925
S'751'
p926
F2.9999999999999996
sS'893'
p927
F3.0
sS'1313'
p928
F0.0
sS'313'
p929
F0.0
sS'310'
p930
F2.7517953168923897
sS'319'
p931
F0.0
sS'315'
p932
F3.6557206750795745
sS'332'
p933
F3.0
sS'258'
p934
F0.0
sS'880'
p935
F0.0
ssS'649'
p936
(dp937
S'24'
p938
F0.0
sg250
F0.0
sS'323'
p939
F3.0
sS'117'
p940
F0.0
sS'181'
p941
F4.0
sS'275'
p942
F0.0
sS'252'
p943
F0.0
sS'250'
p944
F0.0
sS'257'
p945
F4.0
sS'254'
p946
F2.0
ssS'648'
p947
(dp948
S'216'
p949
F3.4444801357482753
sS'217'
p950
F3.753505268587743
sS'215'
p951
F3.4824363935593756
sS'210'
p952
F4.023764333665694
sS'211'
p953
F3.6590801068342995
sS'763'
p954
F3.2325703260807668
sS'665'
p955
F3.1398642863756634
sS'663'
p956
F3.7138513577114414
sS'662'
p957
F0.0
sS'228'
p958
F3.8227498511347835
ssS'623'
p959
(dp960
S'216'
p961
F3.7017183266382494
sS'153'
p962
F0.0
sS'210'
p963
F4.999999999999999
sS'211'
p964
F3.676475117404814
sS'194'
p965
F4.359641634449272
sS'629'
p966
F4.0
sS'88'
p967
F3.0
sS'274'
p968
F3.576682631415042
sS'275'
p969
F3.5757192126952373
sS'228'
p970
F5.0
ssS'622'
p971
(dp972
S'217'
p973
F3.1042049360346886
sS'214'
p974
F3.6850438272749835
sS'215'
p975
F3.674364226014624
sS'212'
p976
F0.0
sS'213'
p977
F3.86907248924349
sS'210'
p978
F3.774935441917171
sS'1303'
p979
F1.0
sS'763'
p980
F2.4162557151021407
sS'665'
p981
F2.699317079439964
sS'176'
p982
F4.188766932289672
ssS'621'
p983
(dp984
S'24'
p985
F0.0
sS'25'
p986
F0.0
sS'769'
p987
F0.0
sS'763'
p988
F0.0
sS'28'
p989
F0.0
sS'871'
p990
F0.0
sS'542'
p991
F0.0
sS'540'
p992
F3.0
sS'135'
p993
F0.0
sS'161'
p994
F3.628097945572936
ssS'620'
p995
(dp996
S'768'
p997
F3.9735516914665525
sS'769'
p998
F3.852850078455036
sS'760'
p999
F2.9392019194536942
sS'699'
p1000
F5.0
sS'28'
p1001
F4.416155787941301
sS'758'
p1002
F0.0
sS'406'
p1003
F3.379121234658067
sS'404'
p1004
F3.8786719070095006
sS'91'
p1005
F0.0
sS'138'
p1006
F3.3764975369217147
ssS'627'
p1007
(dp1008
S'693'
p1009
F3.78222545359953
sS'214'
p1010
F4.0
sS'215'
p1011
F3.1779632363032895
sS'210'
p1012
F3.2850012100846375
sS'665'
p1013
F2.30245748577892
sS'1267'
p1014
F3.1715915081416775
sS'26'
p1015
F2.7538294010886655
sS'660'
p1016
F0.0
sS'735'
p1017
F3.4378064553132055
sS'135'
p1018
F4.072493590610639
ssS'626'
p1019
(dp1020
S'988'
p1021
F1.0
sS'313'
p1022
F0.0
sS'336'
p1023
F1.0
sS'330'
p1024
F0.0
sS'333'
p1025
F4.0
sS'332'
p1026
F0.0
sS'270'
p1027
F0.0
sS'288'
p1028
F4.0
sS'272'
p1029
F0.0
sS'748'
p1030
F0.0
ssS'625'
p1031
(dp1032
S'216'
p1033
F3.1860714131217733
sS'25'
p1034
F2.0
sS'214'
p1035
F0.0
sS'212'
p1036
F4.0
sS'213'
p1037
F3.4135679811913877
sS'210'
p1038
F4.185487354356283
sS'692'
p1039
F0.0
sS'498'
p1040
F3.8913806741878627
sS'135'
p1041
F3.5803224628408143
sS'134'
p1042
F3.683819915963374
ssS'624'
p1043
(dp1044
S'24'
p1045
F4.0
sS'25'
p1046
F3.676886333936657
sS'690'
p1047
F3.6919286237998783
sS'696'
p1048
F2.9999999999999996
sS'762'
p1049
F3.5180357261599924
sS'763'
p1050
F3.4963371427614356
sS'288'
p1051
F0.0
sS'346'
p1052
F3.90955318743306
sS'347'
p1053
F2.9315259660636923
sS'137'
p1054
F0.0
ssS'573'
p1055
(dp1056
S'216'
p1057
F0.0
sS'144'
p1058
F0.0
sS'157'
p1059
F0.0
sS'211'
p1060
F0.0
sS'194'
p1061
F0.0
sS'661'
p1062
F3.8787185173846623
sS'192'
p1063
F3.9307326150151245
sS'179'
p1064
F0.0
sS'134'
p1065
F0.0
sS'495'
p1066
F3.3846964181219974
ssS'572'
p1067
(dp1068
S'13'
p1069
F1.5044710708436009
sS'14'
p1070
F0.0
sS'1171'
p1071
F1.4420291890828898
sS'300'
p1072
F0.0
sS'301'
p1073
F0.0
sS'1137'
p1074
F5.0
sS'319'
p1075
F0.0
sS'289'
p1076
F0.0
sS'924'
p1077
F2.0
sS'284'
p1078
F0.0
ssS'629'
p1079
(dp1080
S'693'
p1081
F5.000000000000001
sS'690'
p1082
F0.0
sS'22'
p1083
F5.0
sS'210'
p1084
F0.0
sS'23'
p1085
F4.0
sS'660'
p1086
F0.0
sS'132'
p1087
F0.0
sS'137'
p1088
F3.7330853878533654
sS'135'
p1089
F0.0
sS'160'
p1090
F4.252778450329027
ssS'628'
p1091
(dp1092
S'690'
p1093
F0.0
sS'338'
p1094
F0.0
sS'874'
p1095
F0.0
sS'330'
p1096
F0.0
sS'333'
p1097
F0.0
sS'332'
p1098
F5.0
sS'270'
p1099
F0.0
sS'288'
p1100
F0.0
sS'258'
p1101
F0.0
sS'173'
p1102
F0.0
ssS'577'
p1103
(dp1104
S'216'
p1105
F4.208528426948405
sS'217'
p1106
F5.0
sS'768'
p1107
F3.366565201229667
sS'215'
p1108
F4.072111237267781
sS'1147'
p1109
F3.3132132106830974
sS'210'
p1110
F4.356331228821032
sS'763'
p1111
F3.8587781984091394
sS'665'
p1112
F2.9999999999999996
sS'663'
p1113
F4.198956539264973
sS'735'
p1114
F4.650575017296348
ssS'576'
p1115
(dp1116
S'319'
p1117
F0.0
sS'210'
p1118
F4.0
sS'763'
p1119
F3.939569770273561
sS'259'
p1120
F0.0
sS'137'
p1121
F5.0
sS'275'
p1122
F4.0
sS'276'
p1123
F0.0
sS'237'
p1124
F0.0
sS'257'
p1125
F0.0
sS'255'
p1126
F0.0
ssS'575'
p1127
(dp1128
S'322'
p1129
F0.0
sS'318'
p1130
F3.009560803577332
sS'603'
p1131
F3.1135804415838932
sS'194'
p1132
F3.9579317287270652
sS'182'
p1133
F5.0
sS'111'
p1134
F0.0
sS'181'
p1135
F2.622005114093246
sS'215'
p1136
F0.0
sS'176'
p1137
F3.524432328516727
sS'173'
p1138
F0.0
ssS'574'
p1139
(dp1140
S'883'
p1141
F0.0
sS'319'
p1142
F0.0
sS'887'
p1143
F0.0
sS'213'
p1144
F5.0
sS'312'
p1145
F4.0
sS'311'
p1146
F3.8275996050458048
sS'310'
p1147
F0.0
sS'331'
p1148
F0.0
sS'316'
p1149
F4.0
sS'347'
p1150
F0.0
ssS'606'
p1151
(dp1152
S'216'
p1153
F0.0
sS'214'
p1154
F0.0
sS'215'
p1155
F5.0
sS'210'
p1156
F5.0
sS'763'
p1157
F0.0
sS'760'
p1158
F0.0
sS'1149'
p1159
F4.4608731341288514
sS'662'
p1160
F0.0
sS'660'
p1161
F0.0
sS'735'
p1162
F0.0
ssS'600'
p1163
(dp1164
S'27'
p1165
F0.0
sS'22'
p1166
F0.0
sS'210'
p1167
F4.0
sS'665'
p1168
F0.0
sS'761'
p1169
F0.0
sS'29'
p1170
F0.0
sS'540'
p1171
F2.720442237448719
sS'541'
p1172
F0.0
sS'403'
p1173
F0.0
sS'4'
p1174
F4.0
ssS'708'
p1175
(dp1176
S'289'
p1177
F0.0
sS'690'
p1178
F3.4556477766692377
sS'21'
p1179
F2.286072803664121
sS'1079'
p1180
F1.496549211644247
sS'762'
p1181
F4.0
sS'763'
p1182
F4.244595704189484
sS'764'
p1183
F0.0
sS'322'
p1184
F2.8705113923541847
sS'819'
p1185
F2.4598897241644084
sS'405'
p1186
F2.691272293355987
ssS'709'
p1187
(dp1188
S'217'
p1189
F4.0
sS'214'
p1190
F2.2980557141068427
sS'215'
p1191
F3.5192297342974634
sS'210'
p1192
F3.975506529103844
sS'762'
p1193
F0.0
sS'665'
p1194
F3.3232534487831025
sS'218'
p1195
F3.389677750307604
sS'219'
p1196
F2.5184184769520632
sS'769'
p1197
F2.692369253060048
sS'164'
p1198
F3.616031139061866
ssS'656'
p1199
(dp1200
S'344'
p1201
F2.5236767620444502
sS'322'
p1202
F0.0
sS'338'
p1203
F0.0
sS'272'
p1204
F0.0
sS'312'
p1205
F2.0
sS'875'
p1206
F0.0
sS'316'
p1207
F0.0
sS'270'
p1208
F5.0
sS'346'
p1209
F5.0
sS'347'
p1210
F2.0
ssS'603'
p1211
(dp1212
S'216'
p1213
F0.0
sS'988'
p1214
F0.0
sS'157'
p1215
F0.0
sS'747'
p1216
F0.0
sS'748'
p1217
F0.0
sS'751'
p1218
F0.0
sS'1483'
p1219
F0.0
sS'271'
p1220
F0.0
sS'62'
p1221
F0.0
sS'273'
p1222
F0.0
ssS'657'
p1223
(dp1224
S'151'
p1225
F0.0
sS'690'
p1226
F0.0
sS'744'
p1227
F4.0
sS'628'
p1228
F0.0
sS'455'
p1229
F2.185490306023421
sS'873'
p1230
F0.0
sS'117'
p1231
F2.7103594977416234
sS'273'
p1232
F0.0
sS'111'
p1233
F0.0
sS'118'
p1234
F5.0
ssS'579'
p1235
(dp1236
S'216'
p1237
F3.6862496702139924
sS'709'
p1238
F3.799713868603294
sS'603'
p1239
F3.9582931548374094
sS'211'
p1240
F3.4297918249513275
sS'748'
p1241
F3.35989533036354
sS'194'
p1242
F3.8360722072721236
sS'56'
p1243
F0.0
sS'331'
p1244
F3.3630236723987594
sS'66'
p1245
F3.6757152483943574
sS'228'
p1246
F3.1130219355553574
ssS'602'
p1247
(dp1248
S'988'
p1249
F3.3361970838527837
sS'880'
p1250
F0.0
sS'748'
p1251
F5.0
sS'457'
p1252
F0.0
sg250
F0.0
sS'117'
p1253
F0.0
sS'259'
p1254
F3.0
sS'871'
p1255
F3.0
sS'237'
p1256
F0.0
sS'257'
p1257
F0.0
ssS'654'
p1258
(dp1259
S'216'
p1260
F3.963166109242785
sS'25'
p1261
F3.7124678287425517
sS'215'
p1262
F3.957528636010706
sS'210'
p1263
F4.183810057304128
sS'22'
p1264
F4.0
sS'218'
p1265
F3.578244886144902
sS'660'
p1266
F0.0
sS'137'
p1267
F3.8265234321480963
sS'24'
p1268
F2.9999999999999996
sS'496'
p1269
F4.498260578925841
ssS'731'
p1270
(dp1271
S'216'
p1272
F0.0
sS'1086'
p1273
F3.7976435772485284
sS'153'
p1274
F0.0
sS'56'
p1275
F0.0
sS'213'
p1276
F0.0
sS'603'
p1277
F0.0
sS'194'
p1278
F5.0
sS'197'
p1279
F0.0
sS'196'
p1280
F4.0
sS'481'
p1281
F4.0
ssS'730'
p1282
(dp1283
S'151'
p1284
F0.0
sS'742'
p1285
F4.0
sS'748'
p1286
F0.0
sS'332'
p1287
F3.280200459752648
sg250
F0.0
sS'258'
p1288
F0.0
sS'273'
p1289
F0.0
sS'276'
p1290
F0.0
sS'269'
p1291
F0.0
sS'237'
p1292
F0.0
ssS'733'
p1293
(dp1294
S'1142'
p1295
F3.415196492801782
sS'1226'
p1296
F3.46424936749437
sS'20'
p1297
F4.0
sS'762'
p1298
F1.4579696803906752
sS'322'
p1299
F2.0
sS'288'
p1300
F0.0
sS'405'
p1301
F1.9866765676817817
sS'130'
p1302
F4.0
sS'546'
p1303
F3.0
sS'137'
p1304
F2.0
ssS'655'
p1305
(dp1306
S'1141'
p1307
F2.9999999999999996
sS'345'
p1308
F2.9058949460295453
sS'344'
p1309
F3.4001204884066447
sS'428'
p1310
F3.7680016937149214
sS'346'
p1311
F3.337079670146407
sS'347'
p1312
F2.5190500630048476
sS'919'
p1313
F3.0
sS'507'
p1314
F3.2002570562012043
sS'813'
p1315
F3.2092894792884348
sS'340'
p1316
F0.0
ssS'652'
p1317
(dp1318
S'288'
p1319
F0.0
sS'879'
p1320
F3.4615166757886136
sS'748'
p1321
F2.0
sS'699'
p1322
F0.0
sS'984'
p1323
F0.0
sS'323'
p1324
F2.0
sS'259'
p1325
F0.0
sS'275'
p1326
F0.0
sS'395'
p1327
F0.0
sS'257'
p1328
F4.0
ssS'734'
p1329
(dp1330
S'591'
p1331
F0.0
sS'604'
p1332
F3.432171864175859
sS'607'
p1333
F4.244228327234914
sS'318'
p1334
F0.0
sS'198'
p1335
F2.0
sS'210'
p1336
F0.0
sS'313'
p1337
F4.0
sS'705'
p1338
F5.0
sS'191'
p1339
F0.0
sS'662'
p1340
F0.0
ssS'737'
p1341
(dp1342
S'154'
p1343
F0.0
sS'156'
p1344
F0.0
sS'196'
p1345
F0.0
sS'192'
p1346
F0.0
sS'258'
p1347
F0.0
sS'89'
p1348
F0.0
sS'64'
p1349
F0.0
sS'175'
p1350
F0.0
sS'174'
p1351
F0.0
sS'173'
p1352
F0.0
ssS'651'
p1353
(dp1354
S'995'
p1355
F0.0
sS'309'
p1356
F1.0
sS'690'
p1357
F0.0
sS'301'
p1358
F4.0
sS'302'
p1359
F4.0
sS'306'
p1360
F2.0
sS'332'
p1361
F0.0
sS'127'
p1362
F0.0
sS'515'
p1363
F0.0
sS'285'
p1364
F0.0
ssS'739'
p1365
(dp1366
S'216'
p1367
F1.0
sS'318'
p1368
F5.0
sS'603'
p1369
F3.4125282940707105
sS'195'
p1370
F4.0
sS'749'
p1371
F0.0
sS'197'
p1372
F3.585601661139572
sS'50'
p1373
F4.0
sS'661'
p1374
F4.266851725648069
sS'132'
p1375
F2.105763039278815
sS'498'
p1376
F4.0
ssS'735'
p1377
(dp1378
S'741'
p1379
F0.0
sS'319'
p1380
F0.0
sS'744'
p1381
F0.0
sS'748'
p1382
F0.0
sS'628'
p1383
F3.1480711915732247
sS'331'
p1384
F2.949244266185972
sS'333'
p1385
F4.484209840844507
sS'332'
p1386
F4.311001416144042
sS'289'
p1387
F0.0
sS'258'
p1388
F0.0
ssS'658'
p1389
(dp1390
S'458'
p1391
F2.0
sS'151'
p1392
F0.0
sS'318'
p1393
F4.853780670970741
sS'212'
p1394
F0.0
sS'198'
p1395
F3.9225695105432754
sS'603'
p1396
F4.512271400574068
sS'195'
p1397
F0.0
sS'50'
p1398
F4.577621074381748
sS'919'
p1399
F0.0
sS'488'
p1400
F4.710669853167811
ssS'653'
p1401
(dp1402
S'216'
p1403
F2.761088839110924
sS'1140'
p1404
F1.5585103362108135
sS'215'
p1405
F4.64038077116038
sS'213'
p1406
F3.5268299689398375
sS'210'
p1407
F4.03145234285911
sS'211'
p1408
F3.15128161665416
sS'763'
p1409
F2.389655162343264
sS'1267'
p1410
F2.304773714311047
sS'214'
p1411
F0.0
sS'765'
p1412
F2.0030297347918546
ssS'630'
p1413
(dp1414
S'216'
p1415
F2.7957927327939576
sS'25'
p1416
F3.518113360049113
sS'213'
p1417
F3.4458080268041473
sS'22'
p1418
F0.0
sS'1079'
p1419
F2.665020152573439
sS'288'
p1420
F0.0
sS'546'
p1421
F4.0
sS'264'
p1422
F3.07675302020809
sS'280'
p1423
F0.0
sS'496'
p1424
F3.4814352591621964
ssS'752'
p1425
(dp1426
S'882'
p1427
F1.0
sS'621'
p1428
F3.4002649145840667
sS'887'
p1429
F0.0
sS'338'
p1430
F4.0
sS'748'
p1431
F0.0
sS'311'
p1432
F3.4419428603825026
sS'310'
p1433
F0.0
sS'331'
p1434
F0.0
sS'316'
p1435
F3.201749071173651
sS'1527'
p1436
F2.9225066078940807
ssS'751'
p1437
(dp1438
S'216'
p1439
F3.733518468036205
sS'214'
p1440
F2.0
sS'215'
p1441
F3.544467468706053
sS'213'
p1442
F3.6863528474571603
sS'210'
p1443
F4.302476970539353
sS'1140'
p1444
F0.0
sS'660'
p1445
F4.0
sS'131'
p1446
F3.7316422542970913
sS'227'
p1447
F4.263786198906484
sS'90'
p1448
F0.0
ssS'633'
p1449
(dp1450
S'318'
p1451
F4.0
sS'195'
p1452
F2.681030567510789
sS'665'
p1453
F0.0
sS'317'
p1454
F0.0
sS'333'
p1455
F3.652334745228524
sS'117'
p1456
F0.0
sS'498'
p1457
F4.0
sS'110'
p1458
F0.0
sS'276'
p1459
F0.0
sS'234'
p1460
F3.0
ssS'634'
p1461
(dp1462
S'1142'
p1463
F4.358715621781407
sS'690'
p1464
F3.581614870752251
sS'696'
p1465
F3.0
sS'21'
p1466
F2.034917704344705
sS'762'
p1467
F3.0
sS'763'
p1468
F3.12971115214339
sS'760'
p1469
F3.0
sg250
F0.0
sS'137'
p1470
F2.0
sS'225'
p1471
F2.8712228000748303
ssS'650'
p1472
(dp1473
S'216'
p1474
F3.3872561589820376
sS'217'
p1475
F3.1929619650509586
sS'214'
p1476
F0.0
sS'215'
p1477
F3.424450432217922
sS'212'
p1478
F3.03004134540279
sS'210'
p1479
F3.4871837371161183
sS'211'
p1480
F3.43633495423678
sS'665'
p1481
F2.204295068643336
sS'1149'
p1482
F3.6100110840333306
sS'663'
p1483
F3.6736875170221355
ssS'636'
p1484
(dp1485
S'740'
p1486
F5.0
sS'10'
p1487
F0.0
sS'15'
p1488
F0.0
sS'596'
p1489
F0.0
sS'313'
p1490
F0.0
sS'760'
p1491
F0.0
sg250
F0.0
sS'272'
p1492
F0.0
sS'283'
p1493
F0.0
sS'118'
p1494
F0.0
ssS'637'
p1495
(dp1496
S'24'
p1497
F2.0
sS'25'
p1498
F2.0
sS'690'
p1499
F3.0
sS'289'
p1500
F0.0
sS'405'
p1501
F3.0
sS'546'
p1502
F2.527107241788682
sS'1374'
p1503
F0.0
sS'544'
p1504
F0.0
sS'280'
p1505
F0.0
sS'93'
p1506
F2.0
ssS'638'
p1507
(dp1508
S'153'
p1509
F0.0
sS'210'
p1510
F4.760058768547098
sS'211'
p1511
F3.3088257470703644
sS'195'
p1512
F3.7251522982278336
sS'554'
p1513
F0.0
sS'449'
p1514
F0.0
sS'62'
p1515
F0.0
sS'229'
p1516
F2.7699469439275943
sS'127'
p1517
F3.916058419783322
sS'82'
p1518
F4.0
ssS'639'
p1519
(dp1520
S'216'
p1521
F3.2546215911117025
sS'215'
p1522
F2.0
sS'212'
p1523
F0.0
sS'213'
p1524
F2.922328423598784
sS'210'
p1525
F3.6107707216952933
sS'664'
p1526
F2.775323020344144
sS'662'
p1527
F2.0
sS'661'
p1528
F3.608428437493393
sS'660'
p1529
F2.0
sS'137'
p1530
F3.996528372879059
ssS'736'
p1531
(dp1532
S'748'
p1533
F0.0
sS'1089'
p1534
F0.0
sS'323'
p1535
F0.0
sS'181'
p1536
F3.0
sS'1388'
p1537
F2.9053200909928694
sS'324'
p1538
F0.0
sS'253'
p1539
F0.0
sS'257'
p1540
F0.0
sS'254'
p1541
F0.0
sS'255'
p1542
F0.0
ssS'565'
p1543
(dp1544
S'855'
p1545
F0.0
sS'212'
p1546
F0.0
sS'213'
p1547
F0.0
sS'707'
p1548
F0.0
sS'190'
p1549
F0.0
sS'179'
p1550
F0.0
sS'83'
p1551
F0.0
sS'86'
p1552
F0.0
sS'171'
p1553
F0.0
sS'170'
p1554
F0.0
ssS'566'
p1555
(dp1556
S'215'
p1557
F2.636884660083165
sS'213'
p1558
F3.6899382735271034
sS'210'
p1559
F3.035972966425327
sS'763'
p1560
F3.830156599160004
sS'218'
p1561
F3.1576188766720383
sS'219'
p1562
F3.640338998496378
sS'133'
p1563
F3.721126115306999
sS'137'
p1564
F4.0
sS'136'
p1565
F3.882974428861006
sS'135'
p1566
F3.5991960947255026
ssS'567'
p1567
(dp1568
S'212'
p1569
F0.0
sS'132'
p1570
F0.0
sS'133'
p1571
F5.0
sS'525'
p1572
F4.18381223005451
sS'498'
p1573
F3.741111370547031
sS'136'
p1574
F4.0
sS'135'
p1575
F0.0
sS'134'
p1576
F0.0
sS'494'
p1577
F3.4281345466637534
sS'496'
p1578
F0.0
ssS'738'
p1579
(dp1580
S'216'
p1581
F4.010333257251468
sS'214'
p1582
F3.0
sS'210'
p1583
F4.111639098277707
sS'211'
p1584
F4.11227487830694
sS'665'
p1585
F2.5183736684918214
sS'662'
p1586
F3.0
sS'136'
p1587
F4.11232751044777
sS'135'
p1588
F3.878502701199812
sS'164'
p1589
F3.522025417192724
sS'496'
p1590
F4.322670615924353
ssS'726'
p1591
(dp1592
S'832'
p1593
F0.0
sS'833'
p1594
F1.0
sS'763'
p1595
F2.4183976155071685
sS'310'
p1596
F2.265919866930747
sS'819'
p1597
F3.0
sS'117'
p1598
F0.0
sS'274'
p1599
F3.4719142610376394
sS'1059'
p1600
F0.0
sS'257'
p1601
F0.0
sS'255'
p1602
F0.0
ssS'727'
p1603
(dp1604
S'217'
p1605
F2.4843956750265517
sS'578'
p1606
F2.3908337612588544
sS'210'
p1607
F3.509474286002581
sS'392'
p1608
F3.2465050212363176
sS'760'
p1609
F2.333098627675473
sS'1303'
p1610
F1.7455968356602445
sS'765'
p1611
F2.567897570998103
sS'132'
p1612
F3.6088488286716554
sS'131'
p1613
F3.0
sS'135'
p1614
F3.6882428877719575
ssS'724'
p1615
(dp1616
S'882'
p1617
F0.0
sS'988'
p1618
F1.4589457704140107
sS'880'
p1619
F1.5357039893329492
sS'887'
p1620
F2.359038836017388
sS'338'
p1621
F1.7932439469040056
sS'748'
p1622
F0.0
sS'749'
p1623
F0.0
sS'311'
p1624
F2.1887344021876
sS'310'
p1625
F2.62117742297712
sS'322'
p1626
F2.0
ssS'725'
p1627
(dp1628
S'881'
p1629
F0.0
sS'879'
p1630
F3.7307583378943066
sS'748'
p1631
F3.0
sS'873'
p1632
F1.0
sS'333'
p1633
F3.968419681689013
sS'322'
p1634
F0.0
sS'258'
p1635
F0.0
sS'111'
p1636
F0.0
sS'1197'
p1637
F4.0
sS'276'
p1638
F0.0
ssS'722'
p1639
(dp1640
S'151'
p1641
F0.0
sS'458'
p1642
F0.0
sS'597'
p1643
F0.0
sS'748'
p1644
F0.0
sS'628'
p1645
F4.0
sS'333'
p1646
F0.0
sS'117'
p1647
F0.0
sS'130'
p1648
F0.0
sS'111'
p1649
F0.0
sS'237'
p1650
F0.0
ssS'723'
p1651
(dp1652
S'150'
p1653
F0.0
sS'988'
p1654
F0.0
sS'748'
p1655
F0.0
sS'191'
p1656
F4.0
sS'258'
p1657
F0.0
sS'89'
p1658
F4.0
sS'137'
p1659
F2.9999999999999996
sS'178'
p1660
F4.55167016681856
sS'174'
p1661
F4.0
sS'172'
p1662
F4.0
ssS'720'
p1663
(dp1664
S'319'
p1665
F0.0
sS'887'
p1666
F0.0
sS'313'
p1667
F0.0
sS'749'
p1668
F0.0
sS'311'
p1669
F4.057609895261378
sS'310'
p1670
F0.0
sS'872'
p1671
F0.0
sS'316'
p1672
F4.0
sS'333'
p1673
F0.0
sS'258'
p1674
F0.0
ssS'721'
p1675
(dp1676
S'216'
p1677
F3.8656927586223073
sS'690'
p1678
F3.481102813820352
sS'215'
p1679
F4.769004208168481
sS'22'
p1680
F4.0
sS'1265'
p1681
F0.0
sS'660'
p1682
F0.0
sg250
F0.0
sS'135'
p1683
F4.107872693820371
sS'127'
p1684
F4.63723107139398
sS'268'
p1685
F0.0
ssS'659'
p1686
(dp1687
S'216'
p1688
F3.8410961379286244
sS'214'
p1689
F3.0610724810102576
sS'215'
p1690
F3.9828561954776305
sS'212'
p1691
F0.0
sS'210'
p1692
F3.786420563935272
sS'211'
p1693
F4.10820369756508
sS'762'
p1694
F0.0
sS'664'
p1695
F3.760255098687217
sS'1267'
p1696
F4.0
sS'661'
p1697
F4.076571958610398
ssS'631'
p1698
(dp1699
S'338'
p1700
F3.0
sS'313'
p1701
F0.0
sS'301'
p1702
F3.0
sS'310'
p1703
F2.268895302568891
sS'315'
p1704
F0.0
sS'307'
p1705
F0.0
sS'289'
p1706
F0.0
sS'323'
p1707
F0.0
sS'346'
p1708
F2.0
sS'877'
p1709
F0.0
ssS'728'
p1710
(dp1711
S'25'
p1712
F0.0
sS'742'
p1713
F0.0
sS'322'
p1714
F0.0
sS'748'
p1715
F0.0
sS'319'
p1716
F0.0
sS'871'
p1717
F0.0
sS'289'
p1718
F0.0
sS'117'
p1719
F0.0
sS'116'
p1720
F0.0
sS'237'
p1721
F0.0
ssS'729'
p1722
(dp1723
S'690'
p1724
F0.0
sS'901'
p1725
F4.0
sS'894'
p1726
F0.0
sS'338'
p1727
F0.0
sS'879'
p1728
F0.0
sS'313'
p1729
F0.0
sS'310'
p1730
F0.0
sS'300'
p1731
F0.0
sS'751'
p1732
F0.0
sS'748'
p1733
F0.0
ssS'740'
p1734
(dp1735
S'289'
p1736
F0.0
sS'319'
p1737
F0.0
sS'748'
p1738
F0.0
sS'302'
p1739
F4.0
sS'300'
p1740
F0.0
sS'873'
p1741
F0.0
sS'322'
p1742
F4.0
sS'271'
p1743
F0.0
sS'1038'
p1744
F0.0
sS'328'
p1745
F0.0
ssS'741'
p1746
(dp1747
S'216'
p1748
F3.758733156235873
sS'692'
p1749
F3.7479426530538387
sS'215'
p1750
F2.634301874875738
sS'210'
p1751
F3.4904678592802023
sS'25'
p1752
F3.7117149354193266
sS'218'
p1753
F3.3584498989985696
sS'660'
p1754
F3.0
sS'131'
p1755
F2.0
sS'134'
p1756
F4.7289430022713335
sS'496'
p1757
F4.571272463858871
ssS'742'
p1758
(dp1759
S'591'
p1760
F0.0
sS'24'
p1761
F0.0
sS'50'
p1762
F0.0
sg250
F0.0
sS'117'
p1763
F0.0
sS'181'
p1764
F0.0
sS'546'
p1765
F0.0
sg670
F0.0
sS'250'
p1766
F0.0
sS'237'
p1767
F0.0
ssS'743'
p1768
(dp1769
S'744'
p1770
F0.0
sS'338'
p1771
F0.0
sS'748'
p1772
F0.0
sS'311'
p1773
F3.6306019199537443
sS'322'
p1774
F2.9999999999999996
sS'258'
p1775
F0.0
sS'273'
p1776
F0.0
sS'276'
p1777
F0.0
sS'181'
p1778
F0.0
sS'100'
p1779
F0.0
ssS'601'
p1780
(dp1781
S'318'
p1782
F3.9289367907926387
sS'21'
p1783
F2.663741727908923
sS'210'
p1784
F2.893181598692644
sS'763'
p1785
F1.3133569810060939
sS'660'
p1786
F5.0
sS'133'
p1787
F3.272062603893272
sS'132'
p1788
F3.790607151772954
sS'131'
p1789
F3.0
sS'135'
p1790
F3.7874827899135117
sS'496'
p1791
F3.7776769791315408
ssS'745'
p1792
(dp1793
S'151'
p1794
F0.0
sS'215'
p1795
F0.0
sS'603'
p1796
F3.7854667424116446
sS'194'
p1797
F3.210851742437665
sS'190'
p1798
F3.4642709078347798
sS'1126'
p1799
F0.0
sS'258'
p1800
F3.58528782060128
sS'168'
p1801
F4.0
sS'127'
p1802
F0.0
sS'64'
p1803
F0.0
ssS'746'
p1804
(dp1805
S'449'
p1806
F2.0
sS'578'
p1807
F3.0
sS'157'
p1808
F4.5076305682370075
sS'196'
p1809
F4.150599385843714
sS'550'
p1810
F4.094198395021668
sS'117'
p1811
F0.0
sS'132'
p1812
F3.8030267452969575
sS'62'
p1813
F4.0
sS'403'
p1814
F2.653474152306837
sS'229'
p1815
F2.932203229249044
ssS'747'
p1816
(dp1817
S'1142'
p1818
F4.79289235866498
sS'216'
p1819
F0.0
sS'318'
p1820
F4.999999999999999
sS'210'
p1821
F0.0
sS'211'
p1822
F0.0
sS'664'
p1823
F4.228693516860398
sS'663'
p1824
F5.0
sS'661'
p1825
F5.0
sS'525'
p1826
F4.601012481428989
sS'875'
p1827
F0.0
ssS'748'
p1828
(dp1829
S'216'
p1830
F3.6759592362353306
sS'692'
p1831
F3.0
sS'213'
p1832
F3.764029142040985
sS'210'
p1833
F3.8748871516894274
sS'133'
p1834
F3.816275024190249
sS'132'
p1835
F3.7481660266046477
sS'137'
p1836
F3.0
sS'135'
p1837
F3.936422308245997
sS'495'
p1838
F3.5291708812465115
sS'496'
p1839
F4.106172722517078
ssS'749'
p1840
(dp1841
S'216'
p1842
F4.054360322415898
sS'214'
p1843
F3.173389934782521
sS'215'
p1844
F4.3302463594277
sS'210'
p1845
F4.4961555610582735
sS'211'
p1846
F4.298706309532192
sS'1263'
p1847
F1.0
sS'763'
p1848
F3.33204287231122
sS'663'
p1849
F4.166030196576759
sS'661'
p1850
F4.222215005143385
sS'178'
p1851
F4.434737131283019
ssS'609'
p1852
(dp1853
S'319'
p1854
F0.0
sS'878'
p1855
F0.0
sS'313'
p1856
F0.0
sS'877'
p1857
F0.0
sS'314'
p1858
F0.0
sg250
F0.0
sS'288'
p1859
F0.0
sS'258'
p1860
F0.0
sS'259'
p1861
F0.0
sS'352'
p1862
F1.0
ssS'632'
p1863
(dp1864
S'25'
p1865
F0.0
sS'215'
p1866
F4.0
sS'210'
p1867
F0.0
sS'22'
p1868
F4.843134658250801
sS'763'
p1869
F0.0
sS'28'
p1870
F3.9027961669129794
sS'133'
p1871
F5.0
sS'131'
p1872
F4.0
sS'134'
p1873
F0.0
sS'164'
p1874
F3.0000000000000004
ssS'750'
p1875
(dp1876
S'881'
p1877
F0.0
sS'338'
p1878
F1.0
sS'748'
p1879
F4.0
sS'749'
p1880
F0.0
sS'331'
p1881
F4.0
sS'330'
p1882
F0.0
sS'270'
p1883
F4.0
sS'271'
p1884
F0.0
sS'258'
p1885
F0.0
sS'886'
p1886
F0.0
ssS'635'
p1887
(dp1888
S'150'
p1889
F0.0
sS'742'
p1890
F0.0
sS'886'
p1891
F2.0
sS'748'
p1892
F0.0
sS'331'
p1893
F0.0
sS'333'
p1894
F5.0
sS'117'
p1895
F0.0
sS'276'
p1896
F0.0
sS'237'
p1897
F0.0
sS'255'
p1898
F0.0
ssS'717'
p1899
(dp1900
S'24'
p1901
F0.0
sS'25'
p1902
F4.447978240120597
sS'289'
p1903
F0.0
sS'288'
p1904
F0.0
sS'405'
p1905
F4.271250627484457
sS'130'
p1906
F0.0
sS'546'
p1907
F2.0
sS'343'
p1908
F3.5935207397590143
sS'281'
p1909
F3.68486743967944
sS'280'
p1910
F0.0
ssS'716'
p1911
(dp1912
S'216'
p1913
F4.122619746325685
sS'1269'
p1914
F0.0
sS'215'
p1915
F3.628129341215898
sS'213'
p1916
F4.194415418641031
sS'210'
p1917
F4.419452909274955
sS'211'
p1918
F4.264402740085276
sS'663'
p1919
F4.141312882140671
sS'662'
p1920
F4.0
sS'661'
p1921
F4.325460851363361
sS'525'
p1922
F4.356286407398851
ssS'715'
p1923
(dp1924
S'216'
p1925
F3.777497206852229
sS'217'
p1926
F3.242003834287424
sS'27'
p1927
F0.0
sS'697'
p1928
F0.0
sS'22'
p1929
F5.0
sS'28'
p1930
F3.7454863026504768
sS'761'
p1931
F0.0
sS'955'
p1932
F3.0
sS'135'
p1933
F3.937617066088018
sS'24'
p1934
F0.0
ssS'744'
p1935
(dp1936
S'237'
p1937
F0.0
sS'603'
p1938
F5.0
sS'156'
p1939
F0.0
sS'23'
p1940
F0.0
sS'628'
p1941
F0.0
sS'28'
p1942
F0.0
sg250
F0.0
sS'238'
p1943
F0.0
sS'276'
p1944
F0.0
sS'174'
p1945
F3.0
ssS'618'
p1946
(dp1947
S'216'
p1948
F3.40927094421492
sS'214'
p1949
F1.8652180499691484
sS'215'
p1950
F3.642879475755092
sS'210'
p1951
F4.157104725600686
sS'762'
p1952
F2.9999999999999996
sS'763'
p1953
F3.4687979945929204
sS'218'
p1954
F2.985497022616397
sS'660'
p1955
F2.866414277988102
sS'133'
p1956
F3.728024320969916
sS'132'
p1957
F4.408902328171672
ssS'677'
p1958
(dp1959
S'151'
p1960
F0.0
sS'150'
p1961
F0.0
sS'742'
p1962
F5.0
sS'748'
p1963
F5.0
sS'980'
p1964
F0.0
sS'455'
p1965
F2.9349752692931683
sS'457'
p1966
F0.0
sS'322'
p1967
F0.0
sS'117'
p1968
F0.0
sS'243'
p1969
F3.997020918128649
ssS'612'
p1970
(dp1971
S'604'
p1972
F4.0
sS'322'
p1973
F0.0
sS'878'
p1974
F0.0
sg250
F0.0
sS'117'
p1975
F0.0
sS'259'
p1976
F0.0
sS'275'
p1977
F0.0
sg670
F0.0
sS'237'
p1978
F0.0
sS'118'
p1979
F0.0
ssS'670'
p1980
(dp1981
S'606'
p1982
F4.43530720688988
sS'199'
p1983
F4.16767602721169
sS'603'
p1984
F4.2298937234782565
sS'195'
p1985
F5.0
sS'705'
p1986
F4.999999999999999
sS'191'
p1987
F4.366128398061836
sS'135'
p1988
F3.812244098062745
sS'83'
p1989
F4.402734323359738
sS'175'
p1990
F0.0
sS'174'
p1991
F5.0
ssS'704'
p1992
(dp1993
S'214'
p1994
F0.0
sS'210'
p1995
F3.9797693865891026
sS'211'
p1996
F4.046810945770176
sS'662'
p1997
F0.0
sS'661'
p1998
F4.1891455591303695
sS'131'
p1999
F3.6020772341085596
sS'136'
p2000
F4.087156805918614
sS'135'
p2001
F3.8733385977960264
sS'134'
p2002
F4.19595318375091
sS'494'
p2003
F4.101934274903948
ssS'611'
p2004
(dp2005
S'882'
p2006
F4.0
sS'690'
p2007
F5.0
sS'887'
p2008
F3.7187991116554637
sS'886'
p2009
F0.0
sS'313'
p2010
F0.0
sS'334'
p2011
F5.0
sS'311'
p2012
F3.5118318756090403
sS'336'
p2013
F0.0
sS'333'
p2014
F0.0
sS'272'
p2015
F5.0
ssS'616'
p2016
(dp2017
S'339'
p2018
F3.0
sS'288'
p2019
F0.0
sS'748'
p2020
F3.0
sS'331'
p2021
F3.4458744870723352
sS'316'
p2022
F0.0
sS'315'
p2023
F4.999999999999999
sS'289'
p2024
F0.0
sS'313'
p2025
F0.0
sS'272'
p2026
F5.0
sS'1313'
p2027
F0.0
ssS'617'
p2028
(dp2029
S'217'
p2030
F1.0
sS'669'
p2031
F2.4898248224728494
sS'668'
p2032
F2.220401789457294
sS'667'
p2033
F1.513380167853898
sS'767'
p2034
F0.0
sS'218'
p2035
F2.7259717548317974
sS'219'
p2036
F2.6218644114741534
sS'132'
p2037
F1.341131185754143
sS'498'
p2038
F3.0014619406339773
sS'136'
p2039
F3.0979325604836583
ssS'614'
p2040
(dp2041
S'458'
p2042
F3.0
sS'1142'
p2043
F0.0
sS'25'
p2044
F0.0
sS'871'
p2045
F0.0
sS'289'
p2046
F0.0
sS'117'
p2047
F4.0
sS'276'
p2048
F0.0
sS'279'
p2049
F0.0
sS'237'
p2050
F0.0
sS'255'
p2051
F0.0
ssS'671'
p2052
(dp2053
S'27'
p2054
F0.0
sS'22'
p2055
F3.0
sS'210'
p2056
F3.3438218480160216
sS'23'
p2057
F3.2411753385920035
sS'1303'
p2058
F3.0
sS'29'
p2059
F3.0654623155665943
sS'219'
p2060
F4.0
sS'288'
p2061
F0.0
sS'405'
p2062
F3.656080452359386
sS'161'
p2063
F3.3087985195267877
ssS'685'
p2064
(dp2065
S'882'
p2066
F0.0
sS'319'
p2067
F0.0
sS'991'
p2068
F0.0
sS'886'
p2069
F0.0
sS'334'
p2070
F1.681588740075688
sS'302'
p2071
F0.0
sS'875'
p2072
F0.0
sS'872'
p2073
F1.4599267810308738
sS'873'
p2074
F0.0
sS'299'
p2075
F2.0
ssS'711'
p2076
(dp2077
S'216'
p2078
F0.0
sS'217'
p2079
F2.8305933387624007
sS'214'
p2080
F0.0
sS'215'
p2081
F3.0
sS'213'
p2082
F4.224208634318077
sS'762'
p2083
F0.0
sS'763'
p2084
F0.0
sS'662'
p2085
F0.0
sS'218'
p2086
F0.0
sS'219'
p2087
F0.0
ssS'673'
p2088
(dp2089
S'322'
p2090
F0.0
sS'345'
p2091
F4.0
sS'898'
p2092
F5.0
sS'311'
p2093
F3.0056287506202257
sS'310'
p2094
F4.0
sS'315'
p2095
F0.0
sS'344'
p2096
F4.227393865430357
sS'313'
p2097
F0.0
sS'258'
p2098
F0.0
sS'323'
p2099
F0.0
ssS'705'
p2100
(dp2101
S'1544'
p2102
F5.0
sS'215'
p2103
F3.596200186350905
sS'22'
p2104
F0.0
sS'210'
p2105
F3.8358295958474855
sS'699'
p2106
F2.594304425865441
sS'28'
p2107
F3.917856625396664
sS'29'
p2108
F3.460153175842042
sS'405'
p2109
F4.529210219712747
sS'228'
p2110
F3.4578673119048475
sS'94'
p2111
F3.641108337387079
ssS'732'
p2112
(dp2113
S'882'
p2114
F0.0
sS'690'
p2115
F5.0
sS'300'
p2116
F0.0
sS'875'
p2117
F0.0
sS'304'
p2118
F0.0
sS'305'
p2119
F5.0
sS'873'
p2120
F0.0
sS'322'
p2121
F0.0
sS'243'
p2122
F0.0
sS'269'
p2123
F0.0
ssS'689'
p2124
(dp2125
S'151'
p2126
F0.0
sS'150'
p2127
F0.0
sS'597'
p2128
F5.0
sS'596'
p2129
F0.0
sS'748'
p2130
F0.0
sS'763'
p2131
F0.0
sS'117'
p2132
F0.0
sS'273'
p2133
F0.0
sS'111'
p2134
F0.0
sS'250'
p2135
F0.0
ssS'688'
p2136
(dp2137
S'339'
p2138
F0.0
sS'338'
p2139
F0.0
sS'879'
p2140
F0.0
sS'749'
p2141
F0.0
sS'336'
p2142
F5.0
sS'1127'
p2143
F0.0
sS'288'
p2144
F0.0
sS'259'
p2145
F0.0
sS'326'
p2146
F0.0
sS'877'
p2147
F0.0
ssS'568'
p2148
(dp2149
S'604'
p2150
F3.742682878316012
sS'988'
p2151
F0.0
sS'606'
p2152
F3.61813387651223
sS'213'
p2153
F3.7397956280446243
sS'603'
p2154
F3.8332162411112805
sS'612'
p2155
F3.659227624305179
sS'194'
p2156
F3.5863401552228322
sS'30'
p2157
F1.0
sS'423'
p2158
F3.2403441261298007
sS'100'
p2159
F0.0
ssS'684'
p2160
(dp2161
S'216'
p2162
F3.6076643191084012
sS'692'
p2163
F3.310499639849142
sS'215'
p2164
F4.544467468706053
sS'1301'
p2165
F0.0
sS'210'
p2166
F4.40718685742746
sS'217'
p2167
F3.0
sS'763'
p2168
F3.6785423608969943
sS'218'
p2169
F3.6171695830817585
sS'402'
p2170
F3.1357331184925834
sS'94'
p2171
F3.2172658411197856
ssS'687'
p2172
(dp2173
S'319'
p2174
F0.0
sS'678'
p2175
F0.0
sS'895'
p2176
F4.0
sS'748'
p2177
F3.0
sS'749'
p2178
F0.0
sS'336'
p2179
F0.0
sS'300'
p2180
F0.0
sS'988'
p2181
F0.0
sS'323'
p2182
F3.0
sS'269'
p2183
F0.0
ssS'686'
p2184
(dp2185
S'214'
p2186
F0.0
sS'318'
p2187
F0.0
sS'198'
p2188
F3.4801935723593127
sS'603'
p2189
F5.0
sS'451'
p2190
F0.0
sS'197'
p2191
F0.0
sS'317'
p2192
F0.0
sS'192'
p2193
F5.0
sS'521'
p2194
F0.0
sS'178'
p2195
F5.000000000000001
ssS'681'
p2196
(dp2197
S'289'
p2198
F0.0
sS'690'
p2199
F3.0
sS'310'
p2200
F4.0
sS'270'
p2201
F0.0
sS'288'
p2202
F0.0
sS'258'
p2203
F0.0
sS'259'
p2204
F4.0
sS'328'
p2205
F5.0
sS'1394'
p2206
F0.0
sS'286'
p2207
F0.0
ssS'680'
p2208
(dp2209
S'151'
p2210
F0.0
sS'150'
p2211
F0.0
sS'318'
p2212
F0.0
sS'195'
p2213
F0.0
sS'1089'
p2214
F0.0
sS'117'
p2215
F0.0
sS'273'
p2216
F0.0
sS'274'
p2217
F0.0
sS'276'
p2218
F0.0
sS'269'
p2219
F0.0
ssS'683'
p2220
(dp2221
S'607'
p2222
F4.0
sS'880'
p2223
F0.0
sS'887'
p2224
F2.0
sS'626'
p2225
F0.0
sS'748'
p2226
F3.0
sS'312'
p2227
F0.0
sS'311'
p2228
F2.643335618663557
sS'609'
p2229
F3.317234280557163
sS'347'
p2230
F0.0
sS'127'
p2231
F4.32210821964128
ssS'682'
p2232
(dp2233
S'719'
p2234
F2.5995148184993853
sS'717'
p2235
F2.214235439927567
sS'716'
p2236
F0.0
sS'713'
p2237
F2.0
sS'1067'
p2238
F4.0
sS'710'
p2239
F3.3165179166008802
sS'346'
p2240
F3.644246346543681
sS'298'
p2241
F3.844681761426082
sS'299'
p2242
F3.0
sS'294'
p2243
F0.0
ss.