(dp0
S'133'
p1
(dp2
S'346'
p3
F0.0
sS'313'
p4
F0.0
sS'749'
p5
F0.0
sS'316'
p6
F0.0
sS'315'
p7
F0.0
sS'322'
p8
F0.0
sS'271'
p9
F0.0
sS'272'
p10
F0.0
sS'343'
p11
F0.0
sS'328'
p12
F0.0
ssS'132'
p13
(dp14
S'151'
p15
F0.0
sS'1019'
p16
F0.0
sS'154'
p17
F0.0
sS'664'
p18
F0.0
sS'137'
p19
F0.0
sS'275'
p20
F0.0
sS'523'
p21
F0.0
sS'175'
p22
F0.0
sS'251'
p23
F0.0
sS'521'
p24
F0.0
ssS'131'
p25
(dp26
S'744'
p27
F0.0
sS'313'
p28
F0.0
sS'1'
p29
F0.0
sS'274'
p30
F0.0
sS'275'
p31
F0.0
sS'276'
p32
F0.0
sS'127'
p33
F0.0
sS'297'
p34
F0.0
sS'100'
p35
F0.0
sS'251'
p36
F0.0
ssS'130'
p37
(dp38
S'298'
p39
F0.0
sS'717'
p40
F0.0
sS'299'
p41
F0.0
sS'819'
p42
F0.0
sS'346'
p43
F0.0
sS'347'
p44
F0.0
sS'342'
p45
F0.0
sS'343'
p46
F0.0
sS'815'
p47
F0.0
sS'816'
p48
F0.0
ssS'137'
p49
(dp50
S'892'
p51
F0.0
sS'597'
p52
F0.0
sS'748'
p53
F0.0
sS'1028'
p54
F0.0
sS'195'
p55
F0.0
sS'117'
p56
F0.0
sS'89'
p57
F0.0
sS'235'
p58
F0.0
sS'250'
p59
F0.0
sS'237'
p60
F0.0
ssS'136'
p61
(dp62
S'1142'
p63
F0.0
sS'318'
p64
F0.0
sS'744'
p65
F0.0
sS'747'
p66
F0.0
sS'313'
p67
F0.0
sS'117'
p68
F0.0
sS'116'
p69
F0.0
sS'137'
p70
F0.0
sS'275'
p71
F0.0
sS'276'
p72
F0.0
ssS'135'
p73
(dp74
S'203'
p75
F0.0
sS'744'
p76
F0.0
sS'1208'
p77
F0.0
sS'603'
p78
F0.0
sS'554'
p79
F0.0
sS'452'
p80
F0.0
sS'258'
p81
F0.0
sS'265'
p82
F0.0
sS'234'
p83
F0.0
sS'176'
p84
F0.0
ssS'134'
p85
(dp86
S'339'
p87
F0.0
sS'338'
p88
F0.0
sS'879'
p89
F0.0
sS'748'
p90
F0.0
sS'316'
p91
F0.0
sS'315'
p92
F0.0
sg29
F0.0
sS'323'
p93
F0.0
sS'258'
p94
F0.0
sS'259'
p95
F0.0
ssS'139'
p96
(dp97
S'458'
p98
F0.0
sS'150'
p99
F0.0
sS'744'
p100
F0.0
sS'302'
p101
F0.0
sS'288'
p102
F0.0
sS'740'
p103
F0.0
sS'508'
p104
F0.0
sS'127'
p105
F0.0
sS'237'
p106
F0.0
sS'286'
p107
F0.0
ssS'138'
p108
(dp109
S'151'
p110
F0.0
sS'150'
p111
F0.0
sS'742'
p112
F0.0
sS'318'
p113
F0.0
sS'603'
p114
F0.0
sS'211'
p115
F0.0
sS'194'
p116
F0.0
sS'662'
p117
F0.0
sS'133'
p118
F0.0
sS'117'
p119
F0.0
ssS'93'
p120
(dp121
S'151'
p122
F0.0
sS'845'
p123
F0.0
sS'15'
p124
F0.0
sS'222'
p125
F0.0
sg29
F0.0
sS'121'
p126
F0.0
sS'476'
p127
F0.0
sS'276'
p128
F0.0
sS'815'
p129
F0.0
sS'934'
p130
F0.0
ssS'24'
p131
(dp132
S'216'
p133
F0.0
sS'151'
p134
F0.0
sS'153'
p135
F0.0
sS'318'
p136
F0.0
sS'763'
p137
F0.0
sS'191'
p138
F0.0
sS'742'
p139
F0.0
sS'132'
p140
F0.0
sS'258'
p141
F0.0
sS'64'
p142
F0.0
ssS'25'
p143
(dp144
S'151'
p145
F0.0
sS'604'
p146
F0.0
sS'742'
p147
F0.0
sS'195'
p148
F0.0
sS'197'
p149
F0.0
sS'455'
p150
F0.0
sS'275'
p151
F0.0
sS'228'
p152
F0.0
sS'176'
p153
F0.0
sS'125'
p154
F0.0
ssS'26'
p155
(dp156
S'24'
p157
F0.0
sS'25'
p158
F0.0
sS'760'
p159
F0.0
sS'288'
p160
F0.0
sS'405'
p161
F0.0
sS'546'
p162
F0.0
sS'343'
p163
F0.0
sS'283'
p164
F0.0
sS'930'
p165
F0.0
sS'815'
p166
F0.0
ssS'27'
p167
(dp168
S'742'
p169
F0.0
sS'281'
p170
F0.0
sS'596'
p171
F0.0
sS'978'
p172
F0.0
sS'288'
p173
F0.0
sS'508'
p174
F0.0
sS'325'
p175
F0.0
sS'9'
p176
F0.0
sS'1017'
p177
F0.0
sS'118'
p178
F0.0
ssS'20'
p179
(dp180
S'151'
p181
F0.0
sS'742'
p182
F0.0
sS'597'
p183
F0.0
sS'194'
p184
F0.0
sS'252'
p185
F0.0
sS'498'
p186
F0.0
sS'176'
p187
F0.0
sS'82'
p188
F0.0
sS'69'
p189
F0.0
sS'496'
p190
F0.0
ssS'21'
p191
(dp192
S'217'
p193
F0.0
sS'769'
p194
F0.0
sS'669'
p195
F0.0
sS'668'
p196
F0.0
sS'665'
p197
F0.0
sS'767'
p198
F0.0
sS'218'
p199
F0.0
sS'219'
p200
F0.0
sS'53'
p201
F0.0
sS'264'
p202
F0.0
ssS'22'
p203
(dp204
S'216'
p205
F0.0
sS'692'
p206
F0.0
sS'21'
p207
F0.0
sS'210'
p208
F0.0
sS'211'
p209
F0.0
sS'665'
p210
F0.0
sS'29'
p211
F0.0
sS'407'
p212
F0.0
sS'405'
p213
F0.0
sS'94'
p214
F0.0
ssS'23'
p215
(dp216
S'216'
p217
F0.0
sS'217'
p218
F0.0
sS'214'
p219
F0.0
sS'215'
p220
F0.0
sS'213'
p221
F0.0
sS'211'
p222
F0.0
sS'662'
p223
F0.0
sS'219'
p224
F0.0
sS'133'
p225
F0.0
sS'132'
p226
F0.0
ssS'95'
p227
(dp228
S'216'
p229
F0.0
sS'623'
p230
F0.0
sS'768'
p231
F0.0
sS'215'
p232
F0.0
sS'210'
p233
F0.0
sS'211'
p234
F0.0
sS'665'
p235
F0.0
sS'660'
p236
F0.0
sS'133'
p237
F0.0
sS'132'
p238
F0.0
ssS'28'
p239
(dp240
S'568'
p241
F0.0
sS'217'
p242
F0.0
sS'153'
p243
F0.0
sS'603'
p244
F0.0
sS'450'
p245
F0.0
sS'665'
p246
F0.0
sS'609'
p247
F0.0
sS'859'
p248
F0.0
sS'218'
p249
F0.0
sS'70'
p250
F0.0
ssS'29'
p251
(dp252
S'182'
p253
F0.0
sS'879'
p254
F0.0
sS'748'
p255
F0.0
sS'312'
p256
F0.0
sS'874'
p257
F0.0
sS'661'
p258
F0.0
sS'332'
p259
F0.0
sS'270'
p260
F0.0
sS'657'
p261
F0.0
sS'259'
p262
F0.0
ssS'94'
p263
(dp264
S'716'
p265
F0.0
sS'715'
p266
F0.0
sS'1065'
p267
F0.0
sS'710'
p268
F0.0
sS'346'
p269
F0.0
sS'347'
p270
F0.0
sS'737'
p271
F0.0
sS'343'
p272
F0.0
sS'810'
p273
F0.0
sS'813'
p274
F0.0
ssS'4'
p275
(dp276
S'210'
p277
F0.0
sS'288'
p278
F0.0
sS'271'
p279
F0.0
sS'258'
p280
F0.0
sS'327'
p281
F0.0
sS'324'
p282
F0.0
sS'328'
p283
F0.0
sS'329'
p284
F0.0
sS'362'
p285
F0.0
sS'360'
p286
F0.0
ssS'8'
p287
(dp288
S'338'
p289
F0.0
sS'210'
p290
F0.0
sS'195'
p291
F0.0
sS'190'
p292
F0.0
sS'457'
p293
F0.0
sS'82'
p294
F0.0
sS'258'
p295
F0.0
sS'89'
p296
F0.0
sS'228'
p297
F0.0
sS'177'
p298
F0.0
ssS'96'
p299
(dp300
S'216'
p301
F0.0
sS'153'
p302
F0.0
sS'318'
p303
F0.0
sS'198'
p304
F0.0
sS'156'
p305
F0.0
sS'195'
p306
F0.0
sS'194'
p307
F0.0
sS'196'
p308
F0.0
sS'190'
p309
F0.0
sS'89'
p310
F0.0
ssS'68'
p311
(dp312
S'458'
p313
F0.0
sS'742'
p314
F0.0
sS'596'
p315
F0.0
sS'763'
p316
F0.0
sS'50'
p317
F0.0
sS'1089'
p318
F0.0
sS'258'
p319
F0.0
sS'111'
p320
F0.0
sS'275'
p321
F0.0
sS'276'
p322
F0.0
ssS'120'
p323
(dp324
S'25'
p325
F0.0
sS'742'
p326
F0.0
sS'744'
p327
F0.0
sS'50'
p328
F0.0
sS'118'
p329
F0.0
sg29
F0.0
sS'258'
p330
F0.0
sS'252'
p331
F0.0
sS'237'
p332
F0.0
sS'257'
p333
F0.0
ssS'121'
p334
(dp335
S'740'
p336
F0.0
sS'742'
p337
F0.0
sS'318'
p338
F0.0
sS'595'
p339
F0.0
sS'156'
p340
F0.0
sS'313'
p341
F0.0
sS'628'
p342
F0.0
sS'347'
p343
F0.0
sS'276'
p344
F0.0
sS'744'
p345
F0.0
ssS'122'
p346
(dp347
S'214'
p348
F0.0
sS'215'
p349
F0.0
sS'708'
p350
F0.0
sS'197'
p351
F0.0
sS'191'
p352
F0.0
sS'190'
p353
F0.0
sS'553'
p354
F0.0
sS'660'
p355
F0.0
sS'1268'
p356
F0.0
sS'70'
p357
F0.0
ssS'123'
p358
(dp359
S'319'
p360
F0.0
sS'606'
p361
F0.0
sS'704'
p362
F0.0
sS'197'
p363
F0.0
sS'707'
p364
F0.0
sS'1269'
p365
F0.0
sS'192'
p366
F0.0
sS'132'
p367
F0.0
sS'64'
p368
F0.0
sS'276'
p369
F0.0
ssS'124'
p370
(dp371
S'154'
p372
F0.0
sS'157'
p373
F0.0
sS'195'
p374
F0.0
sS'28'
p375
F0.0
sS'550'
p376
F0.0
sS'117'
p377
F0.0
sS'496'
p378
F0.0
sS'174'
p379
F0.0
sS'173'
p380
F0.0
sS'172'
p381
F0.0
ssS'125'
p382
(dp383
S'216'
p384
F0.0
sS'210'
p385
F0.0
sS'211'
p386
F0.0
sS'763'
p387
F0.0
sS'663'
p388
F0.0
sS'498'
p389
F0.0
sS'136'
p390
F0.0
sS'66'
p391
F0.0
sS'134'
p392
F0.0
sS'496'
p393
F0.0
ssS'126'
p394
(dp395
S'319'
p396
F0.0
sS'884'
p397
F0.0
sS'313'
p398
F0.0
sS'311'
p399
F0.0
sS'310'
p400
F0.0
sS'751'
p401
F0.0
sS'333'
p402
F0.0
sS'332'
p403
F0.0
sS'289'
p404
F0.0
sS'258'
p405
F0.0
ssS'127'
p406
(dp407
S'690'
p408
F0.0
sS'271'
p409
F0.0
sS'748'
p410
F0.0
sS'258'
p411
F0.0
sS'450'
p412
F0.0
sS'62'
p413
F0.0
sS'288'
p414
F0.0
sS'229'
p415
F0.0
sS'343'
p416
F0.0
sS'230'
p417
F0.0
ssS'128'
p418
(dp419
S'216'
p420
F0.0
sS'215'
p421
F0.0
sS'213'
p422
F0.0
sS'210'
p423
F0.0
sS'763'
p424
F0.0
sS'218'
p425
F0.0
sS'660'
p426
F0.0
sS'133'
p427
F0.0
sS'132'
p428
F0.0
sS'131'
p429
F0.0
ssS'129'
p430
(dp431
S'882'
p432
F0.0
sS'339'
p433
F0.0
sS'288'
p434
F0.0
sS'748'
p435
F0.0
sS'311'
p436
F0.0
sS'310'
p437
F0.0
sS'331'
p438
F0.0
sS'270'
p439
F0.0
sS'323'
p440
F0.0
sS'258'
p441
F0.0
ssS'69'
p442
(dp443
S'151'
p444
F0.0
sS'1143'
p445
F0.0
sS'742'
p446
F0.0
sS'886'
p447
F0.0
sS'1144'
p448
F0.0
sS'150'
p449
F0.0
sS'748'
p450
F0.0
sS'763'
p451
F0.0
sS'197'
p452
F0.0
sS'628'
p453
F0.0
ssS'91'
p454
(dp455
S'210'
p456
F0.0
sS'211'
p457
F0.0
sS'134'
p458
F0.0
sS'662'
p459
F0.0
sS'132'
p460
F0.0
sS'131'
p461
F0.0
sS'498'
p462
F0.0
sS'136'
p463
F0.0
sS'135'
p464
F0.0
sS'127'
p465
F0.0
ssS'59'
p466
(dp467
S'591'
p468
F0.0
sS'199'
p469
F0.0
sS'198'
p470
F0.0
sS'597'
p471
F0.0
sS'717'
p472
F0.0
sS'713'
p473
F0.0
sS'715'
p474
F0.0
sS'1065'
p475
F0.0
sS'710'
p476
F0.0
sS'290'
p477
F0.0
ssS'58'
p478
(dp479
S'216'
p480
F0.0
sS'214'
p481
F0.0
sS'213'
p482
F0.0
sS'210'
p483
F0.0
sS'42'
p484
F0.0
sS'663'
p485
F0.0
sS'137'
p486
F0.0
sS'135'
p487
F0.0
sS'134'
p488
F0.0
sS'496'
p489
F0.0
ssS'55'
p490
(dp491
S'144'
p492
F0.0
sS'678'
p493
F0.0
sS'22'
p494
F0.0
sS'597'
p495
F0.0
sS'56'
p496
F0.0
sS'1089'
p497
F0.0
sS'121'
p498
F0.0
sS'117'
p499
F0.0
sS'118'
p500
F0.0
sS'79'
p501
F0.0
ssS'54'
p502
(dp503
S'151'
p504
F0.0
sS'741'
p505
F0.0
sS'742'
p506
F0.0
sS'595'
p507
F0.0
sS'338'
p508
F0.0
sS'597'
p509
F0.0
sS'313'
p510
F0.0
sS'333'
p511
F0.0
sS'1088'
p512
F0.0
sS'258'
p513
F0.0
ssS'57'
p514
(dp515
S'24'
p516
F0.0
sS'763'
p517
F0.0
sS'760'
p518
F0.0
sS'28'
p519
F0.0
sS'1073'
p520
F0.0
sS'1071'
p521
F0.0
sS'288'
p522
F0.0
sS'405'
p523
F0.0
sS'546'
p524
F0.0
sS'496'
p525
F0.0
ssS'56'
p526
(dp527
S'216'
p528
F0.0
sS'215'
p529
F0.0
sS'210'
p530
F0.0
sS'761'
p531
F0.0
sS'219'
p532
F0.0
sS'769'
p533
F0.0
sS'735'
p534
F0.0
sS'164'
p535
F0.0
sS'226'
p536
F0.0
sS'871'
p537
F0.0
ssS'51'
p538
(dp539
S'144'
p540
F0.0
sS'603'
p541
F0.0
sS'705'
p542
F0.0
sS'132'
p543
F0.0
sS'64'
p544
F0.0
sS'136'
p545
F0.0
sS'134'
p546
F0.0
sS'83'
p547
F0.0
sS'496'
p548
F0.0
sS'173'
p549
F0.0
ssS'50'
p550
(dp551
S'319'
p552
F0.0
sS'1084'
p553
F0.0
sS'544'
p554
F0.0
sS'288'
p555
F0.0
sS'327'
p556
F0.0
sS'276'
p557
F0.0
sS'325'
p558
F0.0
sg176
F0.0
sS'253'
p559
F0.0
sS'1010'
p560
F0.0
ssS'53'
p561
(dp562
S'1087'
p563
F0.0
sS'151'
p564
F0.0
sS'199'
p565
F0.0
sS'156'
p566
F0.0
sS'748'
p567
F0.0
sS'628'
p568
F0.0
sS'258'
p569
F0.0
sS'64'
p570
F0.0
sS'250'
p571
F0.0
sS'174'
p572
F0.0
ssS'52'
p573
(dp574
S'151'
p575
F0.0
sS'1086'
p576
F0.0
sS'742'
p577
F0.0
sS'318'
p578
F0.0
sS'741'
p579
F0.0
sS'748'
p580
F0.0
sS'191'
p581
F0.0
sS'1085'
p582
F0.0
sS'333'
p583
F0.0
sS'117'
p584
F0.0
ssS'90'
p585
(dp586
S'216'
p587
F0.0
sS'212'
p588
F0.0
sS'213'
p589
F0.0
sS'211'
p590
F0.0
sS'762'
p591
F0.0
sS'954'
p592
F0.0
sS'1195'
p593
F0.0
sS'1125'
p594
F0.0
sS'661'
p595
F0.0
sS'662'
p596
F0.0
ssS'66'
p597
(dp598
S'24'
p599
F0.0
sS'741'
p600
F0.0
sS'742'
p601
F0.0
sS'21'
p602
F0.0
sS'597'
p603
F0.0
sS'763'
p604
F0.0
sS'50'
p605
F0.0
sS'117'
p606
F0.0
sS'237'
p607
F0.0
sS'257'
p608
F0.0
ssS'67'
p609
(dp610
S'151'
p611
F0.0
sS'147'
p612
F0.0
sS'743'
p613
F0.0
sS'833'
p614
F0.0
sS'117'
p615
F0.0
sS'273'
p616
F0.0
sS'64'
p617
F0.0
sS'276'
p618
F0.0
sS'24'
p619
F0.0
sS'235'
p620
F0.0
ssS'115'
p621
(dp622
S'20'
p623
F0.0
sS'22'
p624
F0.0
sS'23'
p625
F0.0
sS'762'
p626
F0.0
sS'763'
p627
F0.0
sS'1073'
p628
F0.0
sS'218'
p629
F0.0
sS'543'
p630
F0.0
sS'137'
p631
F0.0
sS'496'
p632
F0.0
ssS'114'
p633
(dp634
S'153'
p635
F0.0
sS'318'
p636
F0.0
sS'157'
p637
F0.0
sS'156'
p638
F0.0
sS'195'
p639
F0.0
sS'197'
p640
F0.0
sS'191'
p641
F0.0
sS'135'
p642
F0.0
sS'269'
p643
F0.0
sS'485'
p644
F0.0
ssS'88'
p645
(dp646
S'308'
p647
F0.0
sS'881'
p648
F0.0
sS'750'
p649
F0.0
sS'886'
p650
F0.0
sS'904'
p651
F0.0
sS'300'
p652
F0.0
sS'301'
p653
F0.0
sS'302'
p654
F0.0
sS'319'
p655
F0.0
sS'690'
p656
F0.0
ssS'89'
p657
(dp658
S'216'
p659
F0.0
sS'151'
p660
F0.0
sS'707'
p661
F0.0
sS'212'
p662
F0.0
sS'213'
p663
F0.0
sS'150'
p664
F0.0
sS'762'
p665
F0.0
sS'451'
p666
F0.0
sS'197'
p667
F0.0
sS'875'
p668
F0.0
ssS'111'
p669
(dp670
S'887'
p671
F0.0
sS'313'
p672
F0.0
sS'311'
p673
F0.0
sS'333'
p674
F0.0
sS'344'
p675
F0.0
sS'258'
p676
F0.0
sS'321'
p677
F0.0
sS'326'
p678
F0.0
sS'340'
p679
F0.0
sS'328'
p680
F0.0
ssS'110'
p681
(dp682
S'692'
p683
F0.0
sS'215'
p684
F0.0
sS'212'
p685
F0.0
sS'338'
p686
F0.0
sS'22'
p687
F0.0
sS'28'
p688
F0.0
sS'29'
p689
F0.0
sS'765'
p690
F0.0
sS'288'
p691
F0.0
sS'161'
p692
F0.0
ssS'113'
p693
(dp694
S'319'
p695
F0.0
sS'595'
p696
F0.0
sS'127'
p697
F0.0
sS'742'
p698
F0.0
sS'333'
p699
F0.0
sS'289'
p700
F0.0
sS'258'
p701
F0.0
sS'116'
p702
F0.0
sS'277'
p703
F0.0
sS'237'
p704
F0.0
ssS'112'
p705
(dp706
S'339'
p707
F0.0
sS'748'
p708
F0.0
sS'312'
p709
F0.0
sS'310'
p710
F0.0
sS'331'
p711
F0.0
sS'316'
p712
F0.0
sS'984'
p713
F0.0
sS'332'
p714
F0.0
sS'272'
p715
F0.0
sS'887'
p716
F0.0
ssS'82'
p717
(dp718
S'216'
p719
F0.0
sS'212'
p720
F0.0
sS'211'
p721
F0.0
sS'134'
p722
F0.0
sS'661'
p723
F0.0
sS'660'
p724
F0.0
sS'133'
p725
F0.0
sS'135'
p726
F0.0
sS'228'
p727
F0.0
sS'495'
p728
F0.0
ssS'83'
p729
(dp730
S'216'
p731
F0.0
sS'692'
p732
F0.0
sS'768'
p733
F0.0
sS'215'
p734
F0.0
sS'22'
p735
F0.0
sS'210'
p736
F0.0
sS'663'
p737
F0.0
sS'660'
p738
F0.0
sS'322'
p739
F0.0
sS'139'
p740
F0.0
ssS'80'
p741
(dp742
S'215'
p743
F0.0
sS'199'
p744
F0.0
sS'154'
p745
F0.0
sS'194'
p746
F0.0
sS'699'
p747
F0.0
sS'64'
p748
F0.0
sS'234'
p749
F0.0
sS'205'
p750
F0.0
sS'887'
p751
F0.0
sS'213'
p752
F0.0
ssS'81'
p753
(dp754
S'151'
p755
F0.0
sS'150'
p756
F0.0
sS'742'
p757
F0.0
sS'318'
p758
F0.0
sS'595'
p759
F0.0
sS'210'
p760
F0.0
sS'596'
p761
F0.0
sS'456'
p762
F0.0
sS'928'
p763
F0.0
sS'116'
p764
F0.0
ssS'119'
p765
(dp766
S'213'
p767
F0.0
sS'210'
p768
F0.0
sS'1263'
p769
F0.0
sS'1262'
p770
F0.0
sS'1261'
p771
F0.0
sS'1260'
p772
F0.0
sS'1265'
p773
F0.0
sS'1264'
p774
F0.0
sS'132'
p775
F0.0
sS'137'
p776
F0.0
ssS'118'
p777
(dp778
S'217'
p779
F0.0
sS'559'
p780
F0.0
sS'558'
p781
F0.0
sS'603'
p782
F0.0
sS'774'
p783
F0.0
sS'56'
p784
F0.0
sS'551'
p785
F0.0
sS'218'
p786
F0.0
sS'132'
p787
F0.0
sS'258'
p788
F0.0
ssS'84'
p789
(dp790
S'151'
p791
F0.0
sS'591'
p792
F0.0
sS'742'
p793
F0.0
sS'318'
p794
F0.0
sS'744'
p795
F0.0
sS'597'
p796
F0.0
sS'748'
p797
F0.0
sS'194'
p798
F0.0
sS'628'
p799
F0.0
sS'317'
p800
F0.0
ssS'85'
p801
(dp802
S'216'
p803
F0.0
sS'215'
p804
F0.0
sS'212'
p805
F0.0
sS'213'
p806
F0.0
sS'210'
p807
F0.0
sS'211'
p808
F0.0
sS'663'
p809
F0.0
sS'1149'
p810
F0.0
sS'42'
p811
F0.0
sS'1006'
p812
F0.0
ssS'3'
p813
(dp814
S'319'
p815
F0.0
sS'318'
p816
F0.0
sS'339'
p817
F0.0
sS'338'
p818
F0.0
sS'335'
p819
F0.0
sS'334'
p820
F0.0
sS'337'
p821
F0.0
sS'336'
p822
F0.0
sS'331'
p823
F0.0
sS'347'
p824
F0.0
ssS'7'
p825
(dp826
S'591'
p827
F0.0
sS'590'
p828
F0.0
sS'593'
p829
F0.0
sS'619'
p830
F0.0
sS'595'
p831
F0.0
sS'594'
p832
F0.0
sS'592'
p833
F0.0
sS'341'
p834
F0.0
sS'199'
p835
F0.0
sS'294'
p836
F0.0
ssS'92'
p837
(dp838
S'591'
p839
F0.0
sS'619'
p840
F0.0
sS'199'
p841
F0.0
sS'717'
p842
F0.0
sS'715'
p843
F0.0
sS'712'
p844
F0.0
sS'595'
p845
F0.0
sS'294'
p846
F0.0
sS'295'
p847
F0.0
sS'291'
p848
F0.0
ssS'108'
p849
(dp850
S'740'
p851
F0.0
sS'319'
p852
F0.0
sS'21'
p853
F0.0
sS'748'
p854
F0.0
sg29
F0.0
sS'137'
p855
F0.0
sS'275'
p856
F0.0
sS'252'
p857
F0.0
sS'237'
p858
F0.0
sS'255'
p859
F0.0
ssS'109'
p860
(dp861
S'216'
p862
F0.0
sS'214'
p863
F0.0
sS'215'
p864
F0.0
sS'210'
p865
F0.0
sS'211'
p866
F0.0
sS'762'
p867
F0.0
sS'763'
p868
F0.0
sS'665'
p869
F0.0
sS'218'
p870
F0.0
sS'164'
p871
F0.0
ssS'102'
p872
(dp873
S'217'
p874
F0.0
sS'768'
p875
F0.0
sS'210'
p876
F0.0
sS'211'
p877
F0.0
sS'667'
p878
F0.0
sS'665'
p879
F0.0
sS'663'
p880
F0.0
sS'218'
p881
F0.0
sS'219'
p882
F0.0
sS'127'
p883
F0.0
ssS'103'
p884
(dp885
S'24'
p886
F0.0
sS'211'
p887
F0.0
sS'1089'
p888
F0.0
sS'234'
p889
F0.0
sS'117'
p890
F0.0
sS'252'
p891
F0.0
sS'69'
p892
F0.0
sS'250'
p893
F0.0
sS'257'
p894
F0.0
sS'255'
p895
F0.0
ssS'100'
p896
(dp897
S'1235'
p898
F0.0
sS'881'
p899
F0.0
sS'880'
p900
F0.0
sS'887'
p901
F0.0
sS'886'
p902
F0.0
sS'885'
p903
F0.0
sS'313'
p904
F0.0
sS'310'
p905
F0.0
sS'316'
p906
F0.0
sS'347'
p907
F0.0
ssS'101'
p908
(dp909
S'151'
p910
F0.0
sS'742'
p911
F0.0
sS'595'
p912
F0.0
sS'597'
p913
F0.0
sS'596'
p914
F0.0
sS'763'
p915
F0.0
sS'1028'
p916
F0.0
sS'819'
p917
F0.0
sS'117'
p918
F0.0
sS'278'
p919
F0.0
ssS'106'
p920
(dp921
S'216'
p922
F0.0
sS'318'
p923
F0.0
sS'213'
p924
F0.0
sS'210'
p925
F0.0
sS'211'
p926
F0.0
sS'313'
p927
F0.0
sS'194'
p928
F0.0
sS'699'
p929
F0.0
sS'191'
p930
F0.0
sS'196'
p931
F0.0
ssS'107'
p932
(dp933
S'323'
p934
F0.0
sS'288'
p935
F0.0
sS'313'
p936
F0.0
sS'312'
p937
F0.0
sS'333'
p938
F0.0
sS'322'
p939
F0.0
sS'271'
p940
F0.0
sS'258'
p941
F0.0
sS'259'
p942
F0.0
sS'321'
p943
F0.0
ssS'104'
p944
(dp945
S'25'
p946
F0.0
sS'289'
p947
F0.0
sS'345'
p948
F0.0
sS'346'
p949
F0.0
sS'130'
p950
F0.0
sS'546'
p951
F0.0
sS'342'
p952
F0.0
sS'283'
p953
F0.0
sS'282'
p954
F0.0
sS'347'
p955
F0.0
ssS'105'
p956
(dp957
S'690'
p958
F0.0
sS'880'
p959
F0.0
sS'288'
p960
F0.0
sS'748'
p961
F0.0
sS'333'
p962
F0.0
sS'270'
p963
F0.0
sS'271'
p964
F0.0
sS'272'
p965
F0.0
sS'347'
p966
F0.0
sS'313'
p967
F0.0
ssS'39'
p968
(dp969
S'319'
p970
F0.0
sS'339'
p971
F0.0
sS'345'
p972
F0.0
sS'748'
p973
F0.0
sS'315'
p974
F0.0
sS'270'
p975
F0.0
sS'313'
p976
F0.0
sS'272'
p977
F0.0
sS'347'
p978
F0.0
sS'288'
p979
F0.0
ssS'38'
p980
(dp981
S'216'
p982
F0.0
sS'768'
p983
F0.0
sS'22'
p984
F0.0
sS'211'
p985
F0.0
sS'450'
p986
F0.0
sS'28'
p987
F0.0
sS'218'
p988
F0.0
sS'133'
p989
F0.0
sS'139'
p990
F0.0
sS'94'
p991
F0.0
ssS'33'
p992
(dp993
S'323'
p994
F0.0
sS'880'
p995
F0.0
sS'339'
p996
F0.0
sS'879'
p997
F0.0
sS'313'
p998
F0.0
sS'872'
p999
F0.0
sS'333'
p1000
F0.0
sS'271'
p1001
F0.0
sS'258'
p1002
F0.0
sS'288'
p1003
F0.0
ssS'32'
p1004
(dp1005
S'151'
p1006
F0.0
sS'591'
p1007
F0.0
sS'742'
p1008
F0.0
sS'313'
p1009
F0.0
sS'628'
p1010
F0.0
sS'271'
p1011
F0.0
sS'117'
p1012
F0.0
sS'259'
p1013
F0.0
sS'111'
p1014
F0.0
sS'248'
p1015
F0.0
ssS'31'
p1016
(dp1017
S'319'
p1018
F0.0
sS'886'
p1019
F0.0
sS'705'
p1020
F0.0
sS'153'
p1021
F0.0
sS'192'
p1022
F0.0
sS'271'
p1023
F0.0
sS'498'
p1024
F0.0
sS'136'
p1025
F0.0
sS'135'
p1026
F0.0
sS'175'
p1027
F0.0
ssS'30'
p1028
(dp1029
S'319'
p1030
F0.0
sS'313'
p1031
F0.0
sS'751'
p1032
F0.0
sS'315'
p1033
F0.0
sS'29'
p1034
F0.0
sS'258'
p1035
F0.0
sS'259'
p1036
F0.0
sS'135'
p1037
F0.0
sS'252'
p1038
F0.0
sS'257'
p1039
F0.0
ssS'37'
p1040
(dp1041
S'578'
p1042
F0.0
sS'597'
p1043
F0.0
sS'195'
p1044
F0.0
sS'665'
p1045
F0.0
sS'550'
p1046
F0.0
sS'62'
p1047
F0.0
sS'89'
p1048
F0.0
sS'117'
p1049
F0.0
sS'82'
p1050
F0.0
sS'172'
p1051
F0.0
ssS'36'
p1052
(dp1053
S'883'
p1054
F0.0
sS'882'
p1055
F0.0
sS'319'
p1056
F0.0
sS'310'
p1057
F0.0
sS'339'
p1058
F0.0
sS'885'
p1059
F0.0
sS'878'
p1060
F0.0
sS'748'
p1061
F0.0
sS'875'
p1062
F0.0
sS'873'
p1063
F0.0
ssS'35'
p1064
(dp1065
S'881'
p1066
F0.0
sS'879'
p1067
F0.0
sS'748'
p1068
F0.0
sS'877'
p1069
F0.0
sS'333'
p1070
F0.0
sS'332'
p1071
F0.0
sS'876'
p1072
F0.0
sS'258'
p1073
F0.0
sS'259'
p1074
F0.0
sS'264'
p1075
F0.0
ssS'34'
p1076
(dp1077
S'1024'
p1078
F0.0
sS'690'
p1079
F0.0
sS'991'
p1080
F0.0
sS'990'
p1081
F0.0
sS'898'
p1082
F0.0
sS'312'
p1083
F0.0
sS'310'
p1084
F0.0
sS'332'
p1085
F0.0
sS'245'
p1086
F0.0
sS'242'
p1087
F0.0
ssS'60'
p1088
(dp1089
S'216'
p1090
F0.0
sS'215'
p1091
F0.0
sS'212'
p1092
F0.0
sS'210'
p1093
F0.0
sS'665'
p1094
F0.0
sS'218'
p1095
F0.0
sS'660'
p1096
F0.0
sS'133'
p1097
F0.0
sS'132'
p1098
F0.0
sS'735'
p1099
F0.0
ssS'61'
p1100
(dp1101
S'690'
p1102
F0.0
sS'678'
p1103
F0.0
sS'300'
p1104
F0.0
sS'331'
p1105
F0.0
sS'310'
p1106
F0.0
sS'304'
p1107
F0.0
sS'751'
p1108
F0.0
sS'271'
p1109
F0.0
sS'243'
p1110
F0.0
sS'748'
p1111
F0.0
ssS'62'
p1112
(dp1113
S'216'
p1114
F0.0
sS'217'
p1115
F0.0
sS'664'
p1116
F0.0
sS'213'
p1117
F0.0
sS'210'
p1118
F0.0
sS'763'
p1119
F0.0
sS'665'
p1120
F0.0
sS'952'
p1121
F0.0
sS'660'
p1122
F0.0
sS'132'
p1123
F0.0
ssS'63'
p1124
(dp1125
S'25'
p1126
F0.0
sS'20'
p1127
F0.0
sS'762'
p1128
F0.0
sS'289'
p1129
F0.0
sS'288'
p1130
F0.0
sS'405'
p1131
F0.0
sS'137'
p1132
F0.0
sS'546'
p1133
F0.0
sS'283'
p1134
F0.0
sS'282'
p1135
F0.0
ssS'64'
p1136
(dp1137
S'216'
p1138
F0.0
sS'217'
p1139
F0.0
sS'214'
p1140
F0.0
sS'1141'
p1141
F0.0
sS'212'
p1142
F0.0
sS'210'
p1143
F0.0
sS'211'
p1144
F0.0
sS'663'
p1145
F0.0
sS'662'
p1146
F0.0
sS'127'
p1147
F0.0
ssS'65'
p1148
(dp1149
S'1142'
p1150
F0.0
sS'1129'
p1151
F0.0
sS'318'
p1152
F0.0
sS'66'
p1153
F0.0
sS'210'
p1154
F0.0
sS'211'
p1155
F0.0
sS'194'
p1156
F0.0
sS'197'
p1157
F0.0
sS'196'
p1158
F0.0
sS'179'
p1159
F0.0
ssS'179'
p1160
(dp1161
S'339'
p1162
F0.0
sS'313'
p1163
F0.0
sS'310'
p1164
F0.0
sS'331'
p1165
F0.0
sS'316'
p1166
F0.0
sS'315'
p1167
F0.0
sS'1127'
p1168
F0.0
sS'271'
p1169
F0.0
sS'272'
p1170
F0.0
sS'347'
p1171
F0.0
ssS'178'
p1172
(dp1173
S'216'
p1174
F0.0
sS'214'
p1175
F0.0
sS'215'
p1176
F0.0
sS'1300'
p1177
F0.0
sS'210'
p1178
F0.0
sS'762'
p1179
F0.0
sS'763'
p1180
F0.0
sS'218'
p1181
F0.0
sS'219'
p1182
F0.0
sS'133'
p1183
F0.0
ssS'177'
p1184
(dp1185
S'216'
p1186
F0.0
sS'217'
p1187
F0.0
sS'210'
p1188
F0.0
sS'22'
p1189
F0.0
sS'23'
p1190
F0.0
sg29
F0.0
sS'288'
p1191
F0.0
sS'135'
p1192
F0.0
sS'289'
p1193
F0.0
sS'160'
p1194
F0.0
ssS'176'
p1195
(dp1196
S'151'
p1197
F0.0
sS'741'
p1198
F0.0
sS'319'
p1199
F0.0
sS'1097'
p1200
F0.0
sS'150'
p1201
F0.0
sS'952'
p1202
F0.0
sS'881'
p1203
F0.0
sS'270'
p1204
F0.0
sS'272'
p1205
F0.0
sS'111'
p1206
F0.0
ssS'175'
p1207
(dp1208
S'215'
p1209
F0.0
sS'669'
p1210
F0.0
sS'195'
p1211
F0.0
sS'629'
p1212
F0.0
sS'661'
p1213
F0.0
sS'660'
p1214
F0.0
sS'133'
p1215
F0.0
sS'132'
p1216
F0.0
sS'88'
p1217
F0.0
sS'273'
p1218
F0.0
ssS'174'
p1219
(dp1220
S'216'
p1221
F0.0
sS'623'
p1222
F0.0
sS'768'
p1223
F0.0
sS'215'
p1224
F0.0
sS'210'
p1225
F0.0
sS'762'
p1226
F0.0
sS'1262'
p1227
F0.0
sS'662'
p1228
F0.0
sS'764'
p1229
F0.0
sS'660'
p1230
F0.0
ssS'173'
p1231
(dp1232
S'319'
p1233
F0.0
sS'880'
p1234
F0.0
sS'334'
p1235
F0.0
sS'331'
p1236
F0.0
sS'881'
p1237
F0.0
sS'1265'
p1238
F0.0
sS'332'
p1239
F0.0
sS'289'
p1240
F0.0
sS'258'
p1241
F0.0
sS'259'
p1242
F0.0
ssS'172'
p1243
(dp1244
S'606'
p1245
F0.0
sS'582'
p1246
F0.0
sS'697'
p1247
F0.0
sS'603'
p1248
F0.0
sS'183'
p1249
F0.0
sS'657'
p1250
F0.0
sS'178'
p1251
F0.0
sS'177'
p1252
F0.0
sS'425'
p1253
F0.0
sS'1172'
p1254
F0.0
ssS'171'
p1255
(dp1256
S'344'
p1257
F0.0
sS'690'
p1258
F0.0
sS'887'
p1259
F0.0
sS'313'
p1260
F0.0
sS'310'
p1261
F0.0
sS'346'
p1262
F0.0
sS'315'
p1263
F0.0
sS'270'
p1264
F0.0
sS'288'
p1265
F0.0
sS'258'
p1266
F0.0
ssS'170'
p1267
(dp1268
S'881'
p1269
F0.0
sS'323'
p1270
F0.0
sS'876'
p1271
F0.0
sS'749'
p1272
F0.0
sS'988'
p1273
F0.0
sS'333'
p1274
F0.0
sS'322'
p1275
F0.0
sS'288'
p1276
F0.0
sS'258'
p1277
F0.0
sS'259'
p1278
F0.0
ssS'182'
p1279
(dp1280
S'150'
p1281
F0.0
sS'763'
p1282
F0.0
sS'191'
p1283
F0.0
sS'50'
p1284
F0.0
sS'111'
p1285
F0.0
sS'178'
p1286
F0.0
sS'69'
p1287
F0.0
sS'423'
p1288
F0.0
sS'237'
p1289
F0.0
sS'172'
p1290
F0.0
ssS'183'
p1291
(dp1292
S'216'
p1293
F0.0
sS'144'
p1294
F0.0
sS'212'
p1295
F0.0
sS'210'
p1296
F0.0
sS'159'
p1297
F0.0
sS'331'
p1298
F0.0
sS'50'
p1299
F0.0
sS'270'
p1300
F0.0
sS'88'
p1301
F0.0
sS'229'
p1302
F0.0
ssS'180'
p1303
(dp1304
S'216'
p1305
F0.0
sS'153'
p1306
F0.0
sS'318'
p1307
F0.0
sS'213'
p1308
F0.0
sS'156'
p1309
F0.0
sS'762'
p1310
F0.0
sS'196'
p1311
F0.0
sS'191'
p1312
F0.0
sS'660'
p1313
F0.0
sS'258'
p1314
F0.0
ssS'181'
p1315
(dp1316
S'1068'
p1317
F0.0
sS'593'
p1318
F0.0
sS'718'
p1319
F0.0
sS'717'
p1320
F0.0
sS'713'
p1321
F0.0
sS'818'
p1322
F0.0
sS'819'
p1323
F0.0
sS'1252'
p1324
F0.0
sS'813'
p1325
F0.0
sS'815'
p1326
F0.0
ssS'186'
p1327
(dp1328
S'121'
p1329
F0.0
sS'717'
p1330
F0.0
sS'55'
p1331
F0.0
sS'263'
p1332
F0.0
sS'288'
p1333
F0.0
sS'540'
p1334
F0.0
sS'546'
p1335
F0.0
sS'281'
p1336
F0.0
sS'269'
p1337
F0.0
sS'934'
p1338
F0.0
ssS'187'
p1339
(dp1340
S'216'
p1341
F0.0
sS'214'
p1342
F0.0
sS'215'
p1343
F0.0
sS'213'
p1344
F0.0
sS'210'
p1345
F0.0
sS'747'
p1346
F0.0
sS'197'
p1347
F0.0
sS'196'
p1348
F0.0
sS'191'
p1349
F0.0
sS'660'
p1350
F0.0
ssS'184'
p1351
(dp1352
S'216'
p1353
F0.0
sS'217'
p1354
F0.0
sS'215'
p1355
F0.0
sS'212'
p1356
F0.0
sS'213'
p1357
F0.0
sS'210'
p1358
F0.0
sS'665'
p1359
F0.0
sS'664'
p1360
F0.0
sS'766'
p1361
F0.0
sS'218'
p1362
F0.0
ssS'6'
p1363
(dp1364
S'216'
p1365
F0.0
sS'213'
p1366
F0.0
sS'211'
p1367
F0.0
sS'133'
p1368
F0.0
sS'132'
p1369
F0.0
sS'131'
p1370
F0.0
sS'498'
p1371
F0.0
sS'499'
p1372
F0.0
sS'135'
p1373
F0.0
sS'134'
p1374
F0.0
ssS'188'
p1375
(dp1376
S'216'
p1377
F0.0
sS'692'
p1378
F0.0
sS'769'
p1379
F0.0
sS'22'
p1380
F0.0
sS'210'
p1381
F0.0
sS'211'
p1382
F0.0
sS'1263'
p1383
F0.0
sS'28'
p1384
F0.0
sS'218'
p1385
F0.0
sS'498'
p1386
F0.0
ssS'97'
p1387
(dp1388
S'153'
p1389
F0.0
sS'603'
p1390
F0.0
sS'195'
p1391
F0.0
sS'194'
p1392
F0.0
sS'197'
p1393
F0.0
sS'191'
p1394
F0.0
sS'661'
p1395
F0.0
sS'192'
p1396
F0.0
sS'115'
p1397
F0.0
sS'172'
p1398
F0.0
ssS'185'
p1399
(dp1400
S'216'
p1401
F0.0
sS'740'
p1402
F0.0
sS'318'
p1403
F0.0
sS'199'
p1404
F0.0
sS'197'
p1405
F0.0
sS'196'
p1406
F0.0
sS'701'
p1407
F0.0
sS'703'
p1408
F0.0
sS'114'
p1409
F0.0
sS'258'
p1410
F0.0
ssS'99'
p1411
(dp1412
S'210'
p1413
F0.0
sS'694'
p1414
F0.0
sS'1079'
p1415
F0.0
sS'762'
p1416
F0.0
sS'763'
p1417
F0.0
sS'28'
p1418
F0.0
sg29
F0.0
sS'406'
p1419
F0.0
sS'346'
p1420
F0.0
sS'546'
p1421
F0.0
ssS'98'
p1422
(dp1423
S'988'
p1424
F0.0
sS'152'
p1425
F0.0
sS'745'
p1426
F0.0
sS'210'
p1427
F0.0
sS'211'
p1428
F0.0
sS'194'
p1429
F0.0
sS'629'
p1430
F0.0
sS'88'
p1431
F0.0
sS'116'
p1432
F0.0
sS'173'
p1433
F0.0
ssS'168'
p1434
(dp1435
S'151'
p1436
F0.0
sS'458'
p1437
F0.0
sS'988'
p1438
F0.0
sS'744'
p1439
F0.0
sS'597'
p1440
F0.0
sS'596'
p1441
F0.0
sS'748'
p1442
F0.0
sS'763'
p1443
F0.0
sS'742'
p1444
F0.0
sS'819'
p1445
F0.0
ssS'169'
p1446
(dp1447
S'604'
p1448
F0.0
sS'606'
p1449
F0.0
sS'199'
p1450
F0.0
sS'213'
p1451
F0.0
sS'603'
p1452
F0.0
sS'211'
p1453
F0.0
sS'705'
p1454
F0.0
sS'331'
p1455
F0.0
sS'133'
p1456
F0.0
sS'258'
p1457
F0.0
ssS'164'
p1458
(dp1459
S'458'
p1460
F0.0
sS'742'
p1461
F0.0
sS'620'
p1462
F0.0
sS'597'
p1463
F0.0
sS'748'
p1464
F0.0
sS'331'
p1465
F0.0
sS'984'
p1466
F0.0
sS'313'
p1467
F0.0
sS'117'
p1468
F0.0
sS'276'
p1469
F0.0
ssS'165'
p1470
(dp1471
S'216'
p1472
F0.0
sS'318'
p1473
F0.0
sS'156'
p1474
F0.0
sS'332'
p1475
F0.0
sS'270'
p1476
F0.0
sS'288'
p1477
F0.0
sS'258'
p1478
F0.0
sS'176'
p1479
F0.0
sS'69'
p1480
F0.0
sS'174'
p1481
F0.0
ssS'166'
p1482
(dp1483
S'288'
p1484
F0.0
sS'894'
p1485
F0.0
sS'323'
p1486
F0.0
sS'313'
p1487
F0.0
sS'300'
p1488
F0.0
sS'315'
p1489
F0.0
sS'322'
p1490
F0.0
sS'748'
p1491
F0.0
sS'258'
p1492
F0.0
sS'984'
p1493
F0.0
ssS'167'
p1494
(dp1495
S'1304'
p1496
F0.0
sS'1305'
p1497
F0.0
sS'1306'
p1498
F0.0
sS'1307'
p1499
F0.0
sS'1147'
p1500
F0.0
sS'603'
p1501
F0.0
sS'554'
p1502
F0.0
sS'1308'
p1503
F0.0
sS'1200'
p1504
F0.0
sS'1309'
p1505
F0.0
ssS'160'
p1506
(dp1507
S'1142'
p1508
F0.0
sS'24'
p1509
F0.0
sS'213'
p1510
F0.0
sS'211'
p1511
F0.0
sS'762'
p1512
F0.0
sS'763'
p1513
F0.0
sS'218'
p1514
F0.0
sS'137'
p1515
F0.0
sS'135'
p1516
F0.0
sS'497'
p1517
F0.0
ssS'161'
p1518
(dp1519
S'215'
p1520
F0.0
sS'213'
p1521
F0.0
sS'22'
p1522
F0.0
sS'194'
p1523
F0.0
sS'197'
p1524
F0.0
sS'191'
p1525
F0.0
sS'1266'
p1526
F0.0
sS'315'
p1527
F0.0
sS'133'
p1528
F0.0
sS'210'
p1529
F0.0
ssS'162'
p1530
(dp1531
S'151'
p1532
F0.0
sS'742'
p1533
F0.0
sS'597'
p1534
F0.0
sS'628'
p1535
F0.0
sS'28'
p1536
F0.0
sS'50'
p1537
F0.0
sS'117'
p1538
F0.0
sS'179'
p1539
F0.0
sS'174'
p1540
F0.0
sS'230'
p1541
F0.0
ssS'163'
p1542
(dp1543
S'216'
p1544
F0.0
sS'318'
p1545
F0.0
sS'879'
p1546
F0.0
sS'28'
p1547
F0.0
sS'316'
p1548
F0.0
sS'288'
p1549
F0.0
sS'258'
p1550
F0.0
sS'347'
p1551
F0.0
sS'64'
p1552
F0.0
sS'234'
p1553
F0.0
ssS'11'
p1554
(dp1555
S'216'
p1556
F0.0
sS'692'
p1557
F0.0
sS'215'
p1558
F0.0
sS'213'
p1559
F0.0
sS'211'
p1560
F0.0
sS'663'
p1561
F0.0
sS'662'
p1562
F0.0
sS'660'
p1563
F0.0
sS'429'
p1564
F0.0
sS'135'
p1565
F0.0
ssS'10'
p1566
(dp1567
S'216'
p1568
F0.0
sS'211'
p1569
F0.0
sS'664'
p1570
F0.0
sS'663'
p1571
F0.0
sS'218'
p1572
F0.0
sS'133'
p1573
F0.0
sS'132'
p1574
F0.0
sS'498'
p1575
F0.0
sS'499'
p1576
F0.0
sS'135'
p1577
F0.0
ssS'13'
p1578
(dp1579
S'344'
p1580
F0.0
sS'345'
p1581
F0.0
sS'346'
p1582
F0.0
sS'347'
p1583
F0.0
sS'340'
p1584
F0.0
sS'341'
p1585
F0.0
sS'342'
p1586
F0.0
sS'343'
p1587
F0.0
sS'810'
p1588
F0.0
sS'811'
p1589
F0.0
ssS'12'
p1590
(dp1591
S'591'
p1592
F0.0
sS'216'
p1593
F0.0
sS'318'
p1594
F0.0
sS'708'
p1595
F0.0
sS'157'
p1596
F0.0
sS'195'
p1597
F0.0
sS'196'
p1598
F0.0
sS'191'
p1599
F0.0
sS'133'
p1600
F0.0
sS'98'
p1601
F0.0
ssS'15'
p1602
(dp1603
S'25'
p1604
F0.0
sS'690'
p1605
F0.0
sS'20'
p1606
F0.0
sS'289'
p1607
F0.0
sS'405'
p1608
F0.0
sS'938'
p1609
F0.0
sS'137'
p1610
F0.0
sS'280'
p1611
F0.0
sS'933'
p1612
F0.0
sS'546'
p1613
F0.0
ssS'14'
p1614
(dp1615
S'25'
p1616
F0.0
sS'213'
p1617
F0.0
sS'210'
p1618
F0.0
sS'211'
p1619
F0.0
sS'762'
p1620
F0.0
sS'22'
p1621
F0.0
sS'663'
p1622
F0.0
sS'525'
p1623
F0.0
sS'498'
p1624
F0.0
sS'492'
p1625
F0.0
ssS'17'
p1626
(dp1627
S'151'
p1628
F0.0
sS'150'
p1629
F0.0
sS'744'
p1630
F0.0
sS'276'
p1631
F0.0
sS'628'
p1632
F0.0
sS'117'
p1633
F0.0
sS'137'
p1634
F0.0
sS'243'
p1635
F0.0
sS'269'
p1636
F0.0
sS'237'
p1637
F0.0
ssS'16'
p1638
(dp1639
S'216'
p1640
F0.0
sS'692'
p1641
F0.0
sS'693'
p1642
F0.0
sS'761'
p1643
F0.0
sS'661'
p1644
F0.0
sS'498'
p1645
F0.0
sS'135'
p1646
F0.0
sS'134'
p1647
F0.0
sS'227'
p1648
F0.0
sS'496'
p1649
F0.0
ssS'19'
p1650
(dp1651
S'692'
p1652
F0.0
sS'201'
p1653
F0.0
sS'153'
p1654
F0.0
sS'887'
p1655
F0.0
sS'210'
p1656
F0.0
sS'211'
p1657
F0.0
sS'313'
p1658
F0.0
sS'310'
p1659
F0.0
sS'319'
p1660
F0.0
sS'268'
p1661
F0.0
ssS'18'
p1662
(dp1663
S'216'
p1664
F0.0
sS'214'
p1665
F0.0
sS'215'
p1666
F0.0
sS'212'
p1667
F0.0
sS'213'
p1668
F0.0
sS'210'
p1669
F0.0
sS'211'
p1670
F0.0
sS'762'
p1671
F0.0
sS'42'
p1672
F0.0
sS'127'
p1673
F0.0
ssS'117'
p1674
(dp1675
S'25'
p1676
F0.0
sS'214'
p1677
F0.0
sS'210'
p1678
F0.0
sS'132'
p1679
F0.0
sS'763'
p1680
F0.0
sS'406'
p1681
F0.0
sS'405'
p1682
F0.0
sS'546'
p1683
F0.0
sS'931'
p1684
F0.0
sS'282'
p1685
F0.0
ssS'116'
p1686
(dp1687
S'1142'
p1688
F0.0
sS'690'
p1689
F0.0
sS'20'
p1690
F0.0
sS'760'
p1691
F0.0
sS'661'
p1692
F0.0
sS'344'
p1693
F0.0
sS'288'
p1694
F0.0
sS'137'
p1695
F0.0
sS'127'
p1696
F0.0
sS'294'
p1697
F0.0
ssS'151'
p1698
(dp1699
S'216'
p1700
F0.0
sS'1269'
p1701
F0.0
sS'215'
p1702
F0.0
sS'213'
p1703
F0.0
sS'210'
p1704
F0.0
sS'211'
p1705
F0.0
sS'761'
p1706
F0.0
sS'662'
p1707
F0.0
sS'661'
p1708
F0.0
sS'265'
p1709
F0.0
ssS'150'
p1710
(dp1711
S'458'
p1712
F0.0
sS'151'
p1713
F0.0
sS'319'
p1714
F0.0
sS'150'
p1715
F0.0
sS'628'
p1716
F0.0
sS'273'
p1717
F0.0
sS'276'
p1718
F0.0
sS'278'
p1719
F0.0
sS'235'
p1720
F0.0
sS'93'
p1721
F0.0
ssS'153'
p1722
(dp1723
S'216'
p1724
F0.0
sS'182'
p1725
F0.0
sS'22'
p1726
F0.0
sS'322'
p1727
F0.0
sS'323'
p1728
F0.0
sS'258'
p1729
F0.0
sS'181'
p1730
F0.0
sS'64'
p1731
F0.0
sS'174'
p1732
F0.0
sS'172'
p1733
F0.0
ssS'152'
p1734
(dp1735
S'692'
p1736
F0.0
sS'25'
p1737
F0.0
sS'215'
p1738
F0.0
sS'1300'
p1739
F0.0
sS'1301'
p1740
F0.0
sS'763'
p1741
F0.0
sS'660'
p1742
F0.0
sS'133'
p1743
F0.0
sS'132'
p1744
F0.0
sS'21'
p1745
F0.0
ssS'155'
p1746
(dp1747
S'988'
p1748
F0.0
sS'288'
p1749
F0.0
sS'748'
p1750
F0.0
sS'872'
p1751
F0.0
sS'331'
p1752
F0.0
sS'319'
p1753
F0.0
sS'332'
p1754
F0.0
sS'322'
p1755
F0.0
sS'323'
p1756
F0.0
sS'321'
p1757
F0.0
ssS'154'
p1758
(dp1759
S'152'
p1760
F0.0
sS'708'
p1761
F0.0
sS'211'
p1762
F0.0
sS'197'
p1763
F0.0
sS'191'
p1764
F0.0
sS'333'
p1765
F0.0
sS'61'
p1766
F0.0
sS'258'
p1767
F0.0
sS'89'
p1768
F0.0
sS'488'
p1769
F0.0
ssS'157'
p1770
(dp1771
S'740'
p1772
F0.0
sS'150'
p1773
F0.0
sS'1302'
p1774
F0.0
sS'748'
p1775
F0.0
sS'289'
p1776
F0.0
sS'117'
p1777
F0.0
sS'273'
p1778
F0.0
sS'274'
p1779
F0.0
sS'276'
p1780
F0.0
sS'269'
p1781
F0.0
ssS'156'
p1782
(dp1783
S'318'
p1784
F0.0
sS'157'
p1785
F0.0
sS'211'
p1786
F0.0
sS'197'
p1787
F0.0
sS'317'
p1788
F0.0
sS'661'
p1789
F0.0
sS'192'
p1790
F0.0
sS'64'
p1791
F0.0
sS'276'
p1792
F0.0
sS'178'
p1793
F0.0
ssS'159'
p1794
(dp1795
S'24'
p1796
F0.0
sS'25'
p1797
F0.0
sS'742'
p1798
F0.0
sS'289'
p1799
F0.0
sS'288'
p1800
F0.0
sS'405'
p1801
F0.0
sS'130'
p1802
F0.0
sS'546'
p1803
F0.0
sS'932'
p1804
F0.0
sS'930'
p1805
F0.0
ssS'158'
p1806
(dp1807
S'216'
p1808
F0.0
sS'217'
p1809
F0.0
sS'20'
p1810
F0.0
sS'694'
p1811
F0.0
sS'210'
p1812
F0.0
sS'1303'
p1813
F0.0
sS'665'
p1814
F0.0
sS'29'
p1815
F0.0
sS'137'
p1816
F0.0
sS'24'
p1817
F0.0
ssS'48'
p1818
(dp1819
S'988'
p1820
F0.0
sS'215'
p1821
F0.0
sS'210'
p1822
F0.0
sS'195'
p1823
F0.0
sS'194'
p1824
F0.0
sS'609'
p1825
F0.0
sS'1064'
p1826
F0.0
sS'661'
p1827
F0.0
sS'357'
p1828
F0.0
sS'243'
p1829
F0.0
ssS'49'
p1830
(dp1831
S'692'
p1832
F0.0
sS'217'
p1833
F0.0
sS'213'
p1834
F0.0
sS'1078'
p1835
F0.0
sS'25'
p1836
F0.0
sS'695'
p1837
F0.0
sS'218'
p1838
F0.0
sS'219'
p1839
F0.0
sS'640'
p1840
F0.0
sS'225'
p1841
F0.0
ssS'46'
p1842
(dp1843
S'151'
p1844
F0.0
sS'690'
p1845
F0.0
sS'288'
p1846
F0.0
sS'748'
p1847
F0.0
sS'1062'
p1848
F0.0
sS'333'
p1849
F0.0
sS'332'
p1850
F0.0
sS'313'
p1851
F0.0
sS'181'
p1852
F0.0
sS'93'
p1853
F0.0
ssS'86'
p1854
(dp1855
S'881'
p1856
F0.0
sS'338'
p1857
F0.0
sS'879'
p1858
F0.0
sS'889'
p1859
F0.0
sS'888'
p1860
F0.0
sS'872'
p1861
F0.0
sS'319'
p1862
F0.0
sS'270'
p1863
F0.0
sS'258'
p1864
F0.0
sS'259'
p1865
F0.0
ssS'44'
p1866
(dp1867
S'216'
p1868
F0.0
sS'24'
p1869
F0.0
sS'214'
p1870
F0.0
sS'211'
p1871
F0.0
sS'665'
p1872
F0.0
sS'660'
p1873
F0.0
sS'133'
p1874
F0.0
sS'135'
p1875
F0.0
sS'227'
p1876
F0.0
sS'496'
p1877
F0.0
ssS'45'
p1878
(dp1879
S'151'
p1880
F0.0
sS'742'
p1881
F0.0
sS'597'
p1882
F0.0
sS'596'
p1883
F0.0
sS'762'
p1884
F0.0
sS'763'
p1885
F0.0
sS'764'
p1886
F0.0
sS'276'
p1887
F0.0
sS'278'
p1888
F0.0
sS'257'
p1889
F0.0
ssS'42'
p1890
(dp1891
S'216'
p1892
F0.0
sS'215'
p1893
F0.0
sS'210'
p1894
F0.0
sS'211'
p1895
F0.0
sS'219'
p1896
F0.0
sS'132'
p1897
F0.0
sS'131'
p1898
F0.0
sS'136'
p1899
F0.0
sS'135'
p1900
F0.0
sS'496'
p1901
F0.0
ssS'43'
p1902
(dp1903
S'216'
p1904
F0.0
sS'217'
p1905
F0.0
sS'215'
p1906
F0.0
sS'210'
p1907
F0.0
sS'211'
p1908
F0.0
sS'660'
p1909
F0.0
sS'133'
p1910
F0.0
sS'131'
p1911
F0.0
sS'498'
p1912
F0.0
sS'496'
p1913
F0.0
ssS'40'
p1914
(dp1915
S'880'
p1916
F0.0
sS'879'
p1917
F0.0
sS'337'
p1918
F0.0
sS'310'
p1919
F0.0
sS'316'
p1920
F0.0
sS'333'
p1921
F0.0
sS'270'
p1922
F0.0
sS'271'
p1923
F0.0
sS'258'
p1924
F0.0
sS'259'
p1925
F0.0
ssS'87'
p1926
(dp1927
S'216'
p1928
F0.0
sS'135'
p1929
F0.0
sS'210'
p1930
F0.0
sS'211'
p1931
F0.0
sS'765'
p1932
F0.0
sS'132'
p1933
F0.0
sS'66'
p1934
F0.0
sS'134'
p1935
F0.0
sS'496'
p1936
F0.0
sS'871'
p1937
F0.0
ssg29
(dp1938
S'216'
p1939
F0.0
sS'217'
p1940
F0.0
sS'214'
p1941
F0.0
sS'215'
p1942
F0.0
sS'212'
p1943
F0.0
sS'213'
p1944
F0.0
sS'210'
p1945
F0.0
sS'211'
p1946
F0.0
sS'127'
p1947
F0.0
sS'165'
p1948
F0.0
ssS'5'
p1949
(dp1950
S'216'
p1951
F0.0
sS'24'
p1952
F0.0
sS'214'
p1953
F0.0
sS'210'
p1954
F0.0
sS'211'
p1955
F0.0
sS'219'
p1956
F0.0
sS'25'
p1957
F0.0
sS'135'
p1958
F0.0
sS'226'
p1959
F0.0
sS'139'
p1960
F0.0
ssg176
(dp1961
S'690'
p1962
F0.0
sS'691'
p1963
F0.0
sg825
F0.0
sS'527'
p1964
F0.0
sS'340'
p1965
F0.0
sS'402'
p1966
F0.0
sS'276'
p1967
F0.0
sg1363
F0.0
sS'507'
p1968
F0.0
sS'521'
p1969
F0.0
ssS'146'
p1970
(dp1971
S'319'
p1972
F0.0
sS'345'
p1973
F0.0
sS'313'
p1974
F0.0
sS'311'
p1975
F0.0
sS'336'
p1976
F0.0
sS'331'
p1977
F0.0
sS'346'
p1978
F0.0
sS'315'
p1979
F0.0
sS'271'
p1980
F0.0
sS'258'
p1981
F0.0
ssS'147'
p1982
(dp1983
S'751'
p1984
F0.0
sS'339'
p1985
F0.0
sS'904'
p1986
F0.0
sS'313'
p1987
F0.0
sS'301'
p1988
F0.0
sS'304'
p1989
F0.0
sS'690'
p1990
F0.0
sS'305'
p1991
F0.0
sS'270'
p1992
F0.0
sS'937'
p1993
F0.0
ssS'144'
p1994
(dp1995
S'216'
p1996
F0.0
sS'1142'
p1997
F0.0
sS'215'
p1998
F0.0
sS'212'
p1999
F0.0
sS'1147'
p2000
F0.0
sS'762'
p2001
F0.0
sS'760'
p2002
F0.0
sS'137'
p2003
F0.0
sS'135'
p2004
F0.0
sS'15'
p2005
F0.0
ssS'145'
p2006
(dp2007
S'216'
p2008
F0.0
sS'217'
p2009
F0.0
sS'769'
p2010
F0.0
sS'212'
p2011
F0.0
sS'762'
p2012
F0.0
sS'763'
p2013
F0.0
sS'665'
p2014
F0.0
sS'761'
p2015
F0.0
sS'767'
p2016
F0.0
sS'764'
p2017
F0.0
ssS'142'
p2018
(dp2019
S'338'
p2020
F0.0
sS'28'
p2021
F0.0
sS'42'
p2022
F0.0
sS'333'
p2023
F0.0
sS'322'
p2024
F0.0
sS'89'
p2025
F0.0
sS'315'
p2026
F0.0
sS'134'
p2027
F0.0
sS'82'
p2028
F0.0
sS'176'
p2029
F0.0
ssS'143'
p2030
(dp2031
S'690'
p2032
F0.0
sS'271'
p2033
F0.0
sS'313'
p2034
F0.0
sS'331'
p2035
F0.0
sS'1038'
p2036
F0.0
sS'333'
p2037
F0.0
sS'307'
p2038
F0.0
sS'322'
p2039
F0.0
sS'288'
p2040
F0.0
sS'258'
p2041
F0.0
ssS'140'
p2042
(dp2043
S'319'
p2044
F0.0
sS'880'
p2045
F0.0
sS'301'
p2046
F0.0
sS'302'
p2047
F0.0
sS'303'
p2048
F0.0
sS'304'
p2049
F0.0
sS'873'
p2050
F0.0
sS'289'
p2051
F0.0
sS'325'
p2052
F0.0
sS'872'
p2053
F0.0
ssS'141'
p2054
(dp2055
S'1142'
p2056
F0.0
sS'407'
p2057
F0.0
sS'696'
p2058
F0.0
sg29
F0.0
sS'288'
p2059
F0.0
sS'405'
p2060
F0.0
sS'546'
p2061
F0.0
sS'281'
p2062
F0.0
sS'932'
p2063
F0.0
sS'930'
p2064
F0.0
ssS'148'
p2065
(dp2066
S'151'
p2067
F0.0
sS'214'
p2068
F0.0
sS'596'
p2069
F0.0
sS'1149'
p2070
F0.0
sS'663'
p2071
F0.0
sS'190'
p2072
F0.0
sS'969'
p2073
F0.0
sS'133'
p2074
F0.0
sS'114'
p2075
F0.0
sS'189'
p2076
F0.0
ssS'149'
p2077
(dp2078
S'319'
p2079
F0.0
sS'338'
p2080
F0.0
sS'313'
p2081
F0.0
sS'312'
p2082
F0.0
sS'337'
p2083
F0.0
sS'310'
p2084
F0.0
sS'333'
p2085
F0.0
sS'345'
p2086
F0.0
sS'272'
p2087
F0.0
sS'874'
p2088
F0.0
ssS'77'
p2089
(dp2090
S'153'
p2091
F0.0
sS'215'
p2092
F0.0
sS'199'
p2093
F0.0
sS'210'
p2094
F0.0
sS'156'
p2095
F0.0
sS'195'
p2096
F0.0
sS'191'
p2097
F0.0
sS'42'
p2098
F0.0
sS'276'
p2099
F0.0
sS'134'
p2100
F0.0
ssS'76'
p2101
(dp2102
S'216'
p2103
F0.0
sS'1129'
p2104
F0.0
sS'769'
p2105
F0.0
sS'603'
p2106
F0.0
sS'150'
p2107
F0.0
sS'197'
p2108
F0.0
sS'628'
p2109
F0.0
sS'955'
p2110
F0.0
sS'318'
p2111
F0.0
sS'135'
p2112
F0.0
ssS'75'
p2113
(dp2114
S'151'
p2115
F0.0
sS'742'
p2116
F0.0
sS'597'
p2117
F0.0
sS'196'
p2118
F0.0
sS'304'
p2119
F0.0
sS'190'
p2120
F0.0
sS'864'
p2121
F0.0
sS'322'
p2122
F0.0
sS'271'
p2123
F0.0
sS'117'
p2124
F0.0
ssS'74'
p2125
(dp2126
S'150'
p2127
F0.0
sS'690'
p2128
F0.0
sS'1084'
p2129
F0.0
sS'313'
p2130
F0.0
sS'331'
p2131
F0.0
sS'333'
p2132
F0.0
sS'272'
p2133
F0.0
sS'137'
p2134
F0.0
sS'276'
p2135
F0.0
sS'237'
p2136
F0.0
ssS'73'
p2137
(dp2138
S'153'
p2139
F0.0
sS'318'
p2140
F0.0
sS'213'
p2141
F0.0
sS'156'
p2142
F0.0
sS'748'
p2143
F0.0
sS'197'
p2144
F0.0
sS'1149'
p2145
F0.0
sS'660'
p2146
F0.0
sS'271'
p2147
F0.0
sS'179'
p2148
F0.0
ssS'72'
p2149
(dp2150
S'25'
p2151
F0.0
sS'215'
p2152
F0.0
sS'212'
p2153
F0.0
sS'1147'
p2154
F0.0
sS'210'
p2155
F0.0
sS'1148'
p2156
F0.0
sS'664'
p2157
F0.0
sS'135'
p2158
F0.0
sS'134'
p2159
F0.0
sS'493'
p2160
F0.0
ssS'71'
p2161
(dp2162
S'151'
p2163
F0.0
sS'153'
p2164
F0.0
sS'744'
p2165
F0.0
sS'135'
p2166
F0.0
sS'197'
p2167
F0.0
sS'89'
p2168
F0.0
sS'64'
p2169
F0.0
sS'65'
p2170
F0.0
sS'276'
p2171
F0.0
sS'134'
p2172
F0.0
ssS'70'
p2173
(dp2174
S'217'
p2175
F0.0
sS'214'
p2176
F0.0
sS'1146'
p2177
F0.0
sS'210'
p2178
F0.0
sS'211'
p2179
F0.0
sS'762'
p2180
F0.0
sS'132'
p2181
F0.0
sS'135'
p2182
F0.0
sS'507'
p2183
F0.0
sS'139'
p2184
F0.0
ssS'79'
p2185
(dp2186
S'740'
p2187
F0.0
sS'150'
p2188
F0.0
sS'319'
p2189
F0.0
sS'1161'
p2190
F0.0
sS'313'
p2191
F0.0
sS'763'
p2192
F0.0
sS'311'
p2193
F0.0
sS'333'
p2194
F0.0
sS'258'
p2195
F0.0
sS'116'
p2196
F0.0
ssS'78'
p2197
(dp2198
S'25'
p2199
F0.0
sS'1160'
p2200
F0.0
sS'323'
p2201
F0.0
sS'301'
p2202
F0.0
sS'871'
p2203
F0.0
sS'289'
p2204
F0.0
sS'288'
p2205
F0.0
sS'411'
p2206
F0.0
sS'298'
p2207
F0.0
sS'237'
p2208
F0.0
ssS'2'
p2209
(dp2210
S'313'
p2211
F0.0
sS'312'
p2212
F0.0
sS'311'
p2213
F0.0
sS'310'
p2214
F0.0
sS'316'
p2215
F0.0
sS'315'
p2216
F0.0
sS'314'
p2217
F0.0
sS'258'
p2218
F0.0
sS'273'
p2219
F0.0
sS'278'
p2220
F0.0
ssS'41'
p2221
(dp2222
S'216'
p2223
F0.0
sS'153'
p2224
F0.0
sS'318'
p2225
F0.0
sS'746'
p2226
F0.0
sS'156'
p2227
F0.0
sS'313'
p2228
F0.0
sS'194'
p2229
F0.0
sS'196'
p2230
F0.0
sS'191'
p2231
F0.0
sS'135'
p2232
F0.0
ssS'47'
p2233
(dp2234
S'322'
p2235
F0.0
sS'288'
p2236
F0.0
sS'874'
p2237
F0.0
sS'289'
p2238
F0.0
sS'323'
p2239
F0.0
sS'258'
p2240
F0.0
sS'321'
p2241
F0.0
sS'340'
p2242
F0.0
sS'327'
p2243
F0.0
sS'324'
p2244
F0.0
ss.