(dp0
S'534'
p1
(dp2
S'591'
p3
F0.0
sS'151'
p4
F0.0
sS'742'
p5
F0.0
sS'595'
p6
F0.0
sS'1327'
p7
F0.0
sS'597'
p8
F4.0
sS'150'
p9
F0.0
sS'748'
p10
F0.0
sS'763'
p11
F0.0
sS'760'
p12
F0.0
ssS'498'
p13
(dp14
S'1142'
p15
F0.0
sS'212'
p16
F0.0
sS'210'
p17
F2.8122829935440703
sS'664'
p18
F3.0
sS'663'
p19
F4.008916621742333
sS'218'
p20
F3.1802717928478095
sS'137'
p21
F3.0
sS'136'
p22
F3.686328033050633
sS'135'
p23
F3.6257848351533997
sS'134'
p24
F3.660540285198289
ssS'499'
p25
(dp26
S'692'
p27
F0.0
sS'215'
p28
F4.377113225906645
sS'213'
p29
F3.914720556902654
sS'210'
p30
F3.9166517670420573
sS'664'
p31
F4.488961391556172
sS'663'
p32
F4.201925005634718
sS'661'
p33
F4.05278541538129
sS'132'
p34
F3.9826244389738648
sS'136'
p35
F5.0
sS'497'
p36
F4.0
ssS'494'
p37
(dp38
S'199'
p39
F4.003261967991398
sS'603'
p40
F4.682091047480404
sS'748'
p41
F0.0
sS'194'
p42
F0.0
sS'707'
p43
F5.0
sS'191'
p44
F5.0
sS'64'
p45
F0.0
sS'65'
p46
F4.0
sS'174'
p47
F0.0
sS'86'
p48
F4.796689435159091
ssS'495'
p49
(dp50
S'216'
p51
F0.0
sS'217'
p52
F0.0
sS'768'
p53
F3.0
sS'210'
p54
F0.0
sS'211'
p55
F0.0
sS'1263'
p56
F1.8791007238047628
sS'665'
p57
F1.0
sS'214'
p58
F0.0
sS'218'
p59
F4.779935301039467
sS'660'
p60
F0.0
ssS'496'
p61
(dp62
S'217'
p63
F1.4474319971367215
sS'22'
p64
F4.019013496732692
sS'661'
p65
F2.9415390551522895
sS'660'
p66
F2.377991748905789
sS'133'
p67
F0.0
sS'132'
p68
F2.433643061703641
sS'136'
p69
F3.542696959045462
sS'135'
p70
F3.2254874986644824
sS'495'
p71
F4.379318519655706
sS'496'
p72
F0.0
ssS'497'
p73
(dp74
S'216'
p75
F3.486909179717955
sS'217'
p76
F3.0
sS'769'
p77
F2.805838530791663
sS'210'
p78
F3.8139653934657134
sS'1303'
p79
F1.9645027566888311
sS'763'
p80
F2.0
sS'665'
p81
F0.0
sS'765'
p82
F2.5373699881201093
sS'164'
p83
F3.4095833962347255
sS'176'
p84
F3.8072096551049803
ssS'490'
p85
(dp86
S'1128'
p87
F0.0
sS'150'
p88
F4.0
sS'151'
p89
F0.0
sS'273'
p90
F0.0
sS'952'
p91
F3.2797158879335737
sS'455'
p92
F3.0
sS'333'
p93
F0.0
sS'258'
p94
F0.0
sS'109'
p95
F0.0
sS'137'
p96
F0.0
ssS'491'
p97
(dp98
S'319'
p99
F0.0
sS'696'
p100
F0.0
sS'23'
p101
F5.0
sS'45'
p102
F4.785265895969865
sS'190'
p103
F0.0
sS'258'
p104
F0.0
sS'273'
p105
F0.0
sS'236'
p106
F4.0
sS'237'
p107
F0.0
sS'493'
p108
F4.081173032063609
ssS'492'
p109
(dp110
S'153'
p111
F4.0
sS'318'
p112
F3.720131663982694
sS'199'
p113
F3.735726218396681
sS'1147'
p114
F3.444243072612516
sS'1121'
p115
F0.0
sS'242'
p116
F0.0
sS'193'
p117
F3.4997203031121105
sS'521'
p118
F3.34054346980115
sS'134'
p119
F3.6608791153819245
sS'212'
p120
F0.0
ssS'493'
p121
(dp122
S'24'
p123
F4.0
sS'693'
p124
F3.7991459093280056
sS'22'
p125
F4.781562776030942
sS'210'
p126
F4.471299271809716
sS'762'
p127
F0.0
sS'763'
p128
F0.0
sS'127'
p129
F4.547027755289816
sS'288'
p130
F0.0
sS'405'
p131
F0.0
sS'134'
p132
F4.087764691331653
ssS'429'
p133
(dp134
S'591'
p135
F3.3285291732602507
sS'737'
p136
F2.321406455527527
sS'710'
p137
F3.194294654446552
sS'340'
p138
F0.0
sS'816'
p139
F1.0
sS'298'
p140
F3.2518120145884484
sS'507'
p141
F3.673076754946228
sS'293'
p142
F4.717358233530735
sS'290'
p143
F3.0
sS'291'
p144
F3.0435350612841034
ssS'525'
p145
(dp146
S'151'
p147
F0.0
sS'742'
p148
F4.0
sS'595'
p149
F2.1462292324591514
sS'597'
p150
F0.0
sS'596'
p151
F4.412940883969079
sS'762'
p152
F4.0
sS'332'
p153
F3.550480923007975
sS'322'
p154
F2.0
sS'111'
p155
F3.6550438474745666
sS'276'
p156
F0.0
ssS'407'
p157
(dp158
S'216'
p159
F0.0
sS'217'
p160
F0.0
sS'214'
p161
F0.0
sS'215'
p162
F4.0
sS'210'
p163
F0.0
sS'211'
p164
F0.0
sS'1263'
p165
F1.0
sS'218'
p166
F4.0
sS'660'
p167
F0.0
sS'91'
p168
F0.0
ssS'406'
p169
(dp170
S'591'
p171
F3.4202292287244997
sS'199'
p172
F4.01245602296281
sS'198'
p173
F3.7216362992362835
sS'1065'
p174
F3.223455855785747
sS'715'
p175
F0.0
sS'663'
p176
F4.092516181961948
sS'712'
p177
F3.269643351347231
sS'713'
p178
F2.9731595225325997
sS'294'
p179
F0.0
sS'813'
p180
F3.6202534032577773
ssS'405'
p181
(dp182
S'964'
p183
F1.5835291773790057
sS'668'
p184
F1.6231579120855162
sS'1261'
p185
F1.4923233537651714
sS'1260'
p186
F1.4483178548720517
sS'347'
p187
F0.0
sS'341'
p188
F1.5076678217857726
sS'1250'
p189
F1.2646439882544616
sS'810'
p190
F1.3435927805490515
sS'812'
p191
F1.0877374915627522
sS'816'
p192
F1.0
ssS'404'
p193
(dp194
S'339'
p195
F3.4677390256210465
sS'748'
p196
F4.0
sS'310'
p197
F2.515688798084725
sS'331'
p198
F0.0
sS'333'
p199
F0.0
sS'332'
p200
F2.5623334269973856
sS'270'
p201
F5.0
sS'258'
p202
F0.0
sS'259'
p203
F2.6562901613961576
sS'66'
p204
F4.0
ssS'403'
p205
(dp206
S'151'
p207
F0.0
sS'597'
p208
F0.0
sS'748'
p209
F0.0
sS'760'
p210
F1.0
sS'50'
p211
F4.0
sS'864'
p212
F0.0
sS'117'
p213
F0.0
sS'274'
p214
F4.347470921809677
sS'276'
p215
F0.0
sS'235'
p216
F3.0
ssS'402'
p217
(dp218
S'591'
p219
F4.056546982803511
sS'151'
p220
F0.0
sS'748'
p221
F0.0
sS'628'
p222
F4.0
sS'50'
p223
F4.688953454067829
sS'764'
p224
F0.0
sS'455'
p225
F0.0
sS'258'
p226
F0.0
sS'273'
p227
F3.5502776274801304
sS'276'
p228
F0.0
ssS'401'
p229
(dp230
S'216'
p231
F3.8934255953438237
sS'210'
p232
F3.00498807100715
sS'211'
p233
F3.1702863901953617
sS'762'
p234
F5.0
sS'663'
p235
F3.4584608334514217
sS'661'
p236
F3.0
sS'133'
p237
F3.964660398726537
sS'137'
p238
F0.0
sS'499'
p239
F3.3274740996934464
sS'135'
p240
F3.5729879690621096
ssS'400'
p241
(dp242
S'690'
p243
F0.0
sS'288'
p244
F0.0
sS'748'
p245
F2.9999999999999996
sS'749'
p246
F0.0
sS'332'
p247
F4.0
sS'323'
p248
F2.9999999999999996
sS'258'
p249
F0.0
sS'259'
p250
F0.0
sS'313'
p251
F0.0
sS'321'
p252
F0.0
ssS'548'
p253
(dp254
S'690'
p255
F4.642186451215013
sS'696'
p256
F4.0
sS'23'
p257
F4.161145154481214
sS'762'
p258
F1.586387482679302
sS'760'
p259
F1.6786707930471456
sS'1073'
p260
F4.0
sS'218'
p261
F4.177186827886061
sS'1'
p262
F5.0
sS'300'
p263
F0.0
sS'127'
p264
F4.745913647162598
ssS'549'
p265
(dp266
S'151'
p267
F0.0
sS'24'
p268
F0.0
sS'620'
p269
F0.0
sS'748'
p270
F0.0
sS'1'
p271
F0.0
sS'288'
p272
F0.0
sS'258'
p273
F0.0
sS'252'
p274
F3.0
sS'237'
p275
F0.0
sS'118'
p276
F4.0
ssS'409'
p277
(dp278
S'216'
p279
F3.8467906944488655
sS'214'
p280
F0.0
sS'213'
p281
F3.515280138039655
sS'210'
p282
F3.2643978573958186
sS'211'
p283
F4.354311148846165
sS'664'
p284
F2.4665538477688296
sS'663'
p285
F3.756087721349778
sS'661'
p286
F3.9036923954907774
sS'133'
p287
F3.8258367815304424
sS'498'
p288
F4.210407842457723
ssS'408'
p289
(dp290
S'319'
p291
F0.0
sS'288'
p292
F0.0
sS'748'
p293
F0.0
sS'312'
p294
F0.0
sS'310'
p295
F3.0
sS'315'
p296
F0.0
sS'270'
p297
F0.0
sS'271'
p298
F0.0
sS'258'
p299
F0.0
sS'313'
p300
F0.0
ssS'537'
p301
(dp302
S'718'
p303
F3.4279820527807967
sS'715'
p304
F3.3799871673630366
sS'714'
p305
F3.027452356997106
sS'1267'
p306
F1.6328719641034164
sS'345'
p307
F2.809469557187595
sS'346'
p308
F2.561354834594662
sS'347'
p309
F2.949028662197163
sS'340'
p310
F3.50025075259351
sS'343'
p311
F2.0
sS'349'
p312
F1.7391480632956497
ssS'425'
p313
(dp314
S'24'
p315
F0.0
sS'217'
p316
F0.0
sS'690'
p317
F0.0
sS'27'
p318
F0.0
sS'1222'
p319
F3.0
sS'210'
p320
F3.1812952223071447
sS'218'
p321
F3.790249613152021
sS'219'
p322
F2.6532943475929884
sS'1'
p323
F3.4487985232403613
sS'491'
p324
F2.7184869593707566
ssS'424'
p325
(dp326
S'740'
p327
F0.0
sS'882'
p328
F5.0
sS'151'
p329
F0.0
sS'989'
p330
F0.0
sS'310'
p331
F3.3047926007060373
sS'969'
p332
F0.0
sS'1346'
p333
F3.0
sS'115'
p334
F0.0
sS'258'
p335
F0.0
sS'1084'
p336
F0.0
ssS'379'
p337
(dp338
S'216'
p339
F0.0
sS'210'
p340
F0.0
sS'211'
p341
F0.0
sS'663'
p342
F4.0
sS'219'
p343
F0.0
sS'133'
p344
F0.0
sS'131'
p345
F4.259554794336726
sS'137'
p346
F0.0
sS'135'
p347
F4.610738496422716
sS'227'
p348
F0.0
ssS'378'
p349
(dp350
S'591'
p351
F3.546176077152137
sS'597'
p352
F0.0
sS'1061'
p353
F0.0
sS'716'
p354
F0.0
sS'1063'
p355
F3.8955721252822837
sS'298'
p356
F4.0
sS'294'
p357
F0.0
sS'295'
p358
F3.694751744333973
sS'292'
p359
F3.985238267980308
sS'715'
p360
F0.0
ssS'535'
p361
(dp362
S'215'
p363
F4.015462577279528
sS'212'
p364
F4.0
sS'213'
p365
F4.393972726987346
sS'210'
p366
F3.659042300768863
sS'211'
p367
F4.01552865794628
sS'1149'
p368
F3.8555740442228714
sS'955'
p369
F0.0
sS'662'
p370
F0.0
sS'133'
p371
F4.308337250969707
sS'132'
p372
F4.073629575100583
ssS'417'
p373
(dp374
S'715'
p375
F0.0
sS'713'
p376
F3.669502986754678
sS'710'
p377
F3.320615727012115
sS'818'
p378
F0.0
sS'340'
p379
F0.0
sS'298'
p380
F2.8411353793759972
sS'343'
p381
F3.0407732769387392
sS'810'
p382
F2.756737892526831
sS'294'
p383
F0.0
sS'815'
p384
F3.0000000000000004
ssS'410'
p385
(dp386
S'882'
p387
F3.0000000000000004
sS'690'
p388
F4.0
sS'886'
p389
F0.0
sS'748'
p390
F0.0
sS'312'
p391
F2.0
sS'311'
p392
F0.0
sS'316'
p393
F4.0
sS'315'
p394
F0.0
sS'313'
p395
F0.0
sS'258'
p396
F0.0
ssS'411'
p397
(dp398
S'318'
p399
F4.707927060123263
sS'709'
p400
F3.9935892256398544
sS'210'
p401
F3.9794444030639817
sS'195'
p402
F0.0
sS'451'
p403
F0.0
sS'196'
p404
F4.154767841878925
sS'50'
p405
F4.576876434633221
sS'258'
p406
F0.0
sS'89'
p407
F4.113857331621152
sS'238'
p408
F3.960107429010402
ssS'531'
p409
(dp410
S'892'
p411
F0.0
sS'338'
p412
F1.0
sS'748'
p413
F0.0
sS'312'
p414
F0.0
sS'311'
p415
F4.715016818465555
sS'690'
p416
F0.0
sS'332'
p417
F4.7325911796465
sS'313'
p418
F0.0
sS'259'
p419
F0.0
sS'895'
p420
F0.0
ssS'536'
p421
(dp422
S'217'
p423
F0.0
sS'214'
p424
F0.0
sS'215'
p425
F4.575635207326346
sS'213'
p426
F4.1993653217347
sS'210'
p427
F4.807614348595893
sS'662'
p428
F0.0
sS'133'
p429
F3.635221303514631
sS'132'
p430
F4.217979962048089
sS'498'
p431
F4.379371621796479
sS'136'
p432
F4.283860048380084
ssS'418'
p433
(dp434
S'750'
p435
F5.0
sS'1313'
p436
F1.0
sS'895'
p437
F0.0
sS'313'
p438
F0.0
sS'301'
p439
F0.0
sS'302'
p440
F0.0
sS'304'
p441
F0.0
sS'315'
p442
F0.0
sS'300'
p443
F0.0
sS'346'
p444
F0.0
ssS'419'
p445
(dp446
S'604'
p447
F4.57331776886098
sS'212'
p448
F0.0
sS'705'
p449
F4.0
sS'197'
p450
F4.488542894555522
sS'191'
p451
F4.367171559062262
sS'89'
p452
F4.48922848449858
sS'275'
p453
F0.0
sS'134'
p454
F4.816508600972859
sS'494'
p455
F4.467990451388889
sS'69'
p456
F3.0000000000000004
ssS'377'
p457
(dp458
S'338'
p459
F3.0
sS'748'
p460
F5.0
sS'194'
p461
F5.0
sS'316'
p462
F4.333343336039903
sS'219'
p463
F5.0
sS'271'
p464
F5.0
sS'272'
p465
F5.0
sS'234'
p466
F0.0
sS'313'
p467
F0.0
sS'173'
p468
F0.0
ssS'538'
p469
(dp470
S'216'
p471
F5.0
sS'153'
p472
F0.0
sS'215'
p473
F5.0
sS'199'
p474
F4.442843234236626
sS'213'
p475
F4.381721872334973
sS'210'
p476
F3.862593344339579
sS'211'
p477
F0.0
sS'195'
p478
F4.0
sS'196'
p479
F0.0
sS'28'
p480
F3.0
ssS'393'
p481
(dp482
S'625'
p483
F3.50657967342218
sS'717'
p484
F3.020016976929371
sS'715'
p485
F0.0
sS'344'
p486
F4.0
sS'819'
p487
F2.9686697048987174
sS'347'
p488
F3.4662298238182645
sS'342'
p489
F4.0
sS'810'
p490
F3.159403792679763
sS'812'
p491
F0.0
sS'349'
p492
F2.9363402517641157
ssS'392'
p493
(dp494
S'1142'
p495
F4.2492503382684
sS'1143'
p496
F4.67660049377905
sS'23'
p497
F0.0
sS'663'
p498
F0.0
sS'289'
p499
F0.0
sS'134'
p500
F0.0
sS'495'
p501
F5.0
sS'491'
p502
F5.0
sS'492'
p503
F0.0
sS'493'
p504
F4.999999999999999
ssS'391'
p505
(dp506
S'215'
p507
F3.011853609992507
sS'213'
p508
F4.2330474379053875
sS'264'
p509
F2.0
sS'661'
p510
F4.5222498722472295
sS'133'
p511
F4.163234484140722
sS'132'
p512
F4.31586030493172
sS'131'
p513
F4.0439283105594095
sS'498'
p514
F4.3385164031074
sS'134'
p515
F4.3881525058958655
sS'497'
p516
F2.0
ssS'390'
p517
(dp518
S'740'
p519
F4.0
sS'742'
p520
F5.0
sS'989'
p521
F0.0
sS'331'
p522
F0.0
sS'319'
p523
F0.0
sS'289'
p524
F0.0
sS'690'
p525
F0.0
sS'258'
p526
F0.0
sS'275'
p527
F0.0
sS'277'
p528
F0.0
ssS'397'
p529
(dp530
S'693'
p531
F0.0
sS'22'
p532
F5.0
sS'210'
p533
F0.0
sS'23'
p534
F5.0
sS'665'
p535
F0.0
sS'498'
p536
F5.0
sS'135'
p537
F5.0
sS'134'
p538
F0.0
sS'95'
p539
F4.0
sS'492'
p540
F0.0
ssS'396'
p541
(dp542
S'591'
p543
F4.119857369239432
sS'151'
p544
F0.0
sS'742'
p545
F3.597094747817909
sS'595'
p546
F4.277200808671334
sS'597'
p547
F0.0
sS'986'
p548
F0.0
sS'455'
p549
F0.0
sS'333'
p550
F0.0
sS'406'
p551
F2.4358310201879725
sS'281'
p552
F3.5617433513309638
ssS'395'
p553
(dp554
S'151'
p555
F0.0
sS'458'
p556
F0.0
sS'892'
p557
F0.0
sS'215'
p558
F4.0
sS'338'
p559
F0.0
sS'210'
p560
F0.0
sS'596'
p561
F0.0
sS'313'
p562
F0.0
sS'196'
p563
F0.0
sS'172'
p564
F5.0
ssS'394'
p565
(dp566
S'216'
p567
F4.7259318830298795
sS'217'
p568
F0.0
sS'210'
p569
F4.4588902632055305
sS'763'
p570
F4.0
sS'665'
p571
F0.0
sS'218'
p572
F4.0
sS'132'
p573
F4.497067864549154
sS'90'
p574
F0.0
sS'176'
p575
F4.635611854890558
sS'496'
p576
F4.48592865525971
ssS'399'
p577
(dp578
S'622'
p579
F3.1431209454711215
sS'768'
p580
F2.9999999999999996
sS'215'
p581
F2.8988272878934827
sS'210'
p582
F3.3054176799208044
sS'763'
p583
F2.9999999999999996
sS'760'
p584
F2.2786571821317394
sS'214'
p585
F1.5775139949413222
sS'218'
p586
F2.7674836605788147
sS'289'
p587
F0.0
sS'264'
p588
F2.586022882722589
ssS'398'
p589
(dp590
S'216'
p591
F4.124016443380058
sS'211'
p592
F3.9772351158255352
sS'663'
p593
F4.146199682698609
sS'662'
p594
F0.0
sS'661'
p595
F3.8566343242259373
sS'133'
p596
F4.058012772918997
sS'132'
p597
F4.082855025284092
sS'498'
p598
F4.342840137214323
sS'135'
p599
F4.190272440657429
sS'134'
p600
F4.239919588548786
ssS'414'
p601
(dp602
S'690'
p603
F0.0
sS'886'
p604
F0.0
sS'748'
p605
F0.0
sS'310'
p606
F0.0
sS'346'
p607
F0.0
sS'270'
p608
F0.0
sS'288'
p609
F2.0
sS'258'
p610
F0.0
sS'340'
p611
F0.0
sS'313'
p612
F0.0
ssS'415'
p613
(dp614
S'322'
p615
F0.0
sS'154'
p616
F0.0
sS'748'
p617
F0.0
sS'258'
p618
F0.0
sS'1524'
p619
F3.757394464587115
sS'323'
p620
F0.0
sS'180'
p621
F5.0
sS'136'
p622
F5.0
sS'195'
p623
F0.0
sS'174'
p624
F0.0
ssS'416'
p625
(dp626
S'717'
p627
F3.0005861549760637
sS'713'
p628
F4.688258579825486
sS'712'
p629
F3.569427085987279
sS'819'
p630
F2.544334277653856
sS'346'
p631
F4.1200761651442495
sS'347'
p632
F4.277885380224096
sS'918'
p633
F0.0
sS'812'
p634
F0.0
sS'348'
p635
F0.0
sS'815'
p636
F3.586400550556445
ssS'524'
p637
(dp638
S'216'
p639
F3.9001540027529025
sS'1268'
p640
F3.4805922905900055
sS'212'
p641
F2.917740881881902
sS'213'
p642
F3.8794338969829005
sS'210'
p643
F3.65689419184023
sS'211'
p644
F4.133865381178101
sS'955'
p645
F0.0
sS'663'
p646
F3.7586960011841866
sS'661'
p647
F3.858905345264776
sS'660'
p648
F4.0
ssS'428'
p649
(dp650
S'988'
p651
F4.0
sS'338'
p652
F4.183986197878248
sS'313'
p653
F5.0
sS'312'
p654
F4.0
sS'310'
p655
F3.627477082775282
sS'331'
p656
F0.0
sS'316'
p657
F4.686662344882818
sS'315'
p658
F4.065780929694543
sS'332'
p659
F3.6317627847607037
sS'322'
p660
F0.0
ssS'526'
p661
(dp662
S'591'
p663
F3.1427746973316153
sS'150'
p664
F4.0
sS'742'
p665
F4.0
sS'1084'
p666
F4.604544622635035
sS'886'
p667
F0.0
sS'748'
p668
F2.0
sS'312'
p669
F2.0
sS'331'
p670
F2.0
sS'315'
p671
F4.585771921945848
sS'332'
p672
F3.0
ssS'527'
p673
(dp674
S'214'
p675
F0.0
sS'213'
p676
F4.0771840761769
sS'210'
p677
F3.8505416982499416
sS'211'
p678
F3.9808336194114737
sS'1149'
p679
F3.275219430612656
sS'661'
p680
F4.697643312024698
sS'498'
p681
F4.323172011327876
sS'499'
p682
F3.9521631052742965
sS'135'
p683
F3.9909886371824195
sS'134'
p684
F4.143002825599454
ssS'520'
p685
(dp686
S'1051'
p687
F0.0
sS'690'
p688
F5.0
sS'898'
p689
F0.0
sS'311'
p690
F0.0
sS'310'
p691
F5.0
sS'315'
p692
F0.0
sS'871'
p693
F0.0
sS'289'
p694
F0.0
sS'274'
p695
F0.0
sS'269'
p696
F0.0
ssS'521'
p697
(dp698
S'216'
p699
F3.395871560638606
sS'25'
p700
F0.0
sS'215'
p701
F3.3907931572032504
sS'210'
p702
F3.220569686267308
sS'22'
p703
F3.5942647579676437
sS'763'
p704
F2.9999999999999996
sS'132'
p705
F3.328308168510923
sS'135'
p706
F3.562068215538983
sS'226'
p707
F3.204333825208436
sS'496'
p708
F3.5241959776070693
ssS'522'
p709
(dp710
S'318'
p711
F5.0
sS'179'
p712
F0.0
sS'48'
p713
F5.0
sS'23'
p714
F4.19701292699733
sS'192'
p715
F4.433885207040328
sS'133'
p716
F0.0
sS'135'
p717
F5.0
sS'134'
p718
F0.0
sS'173'
p719
F0.0
sS'492'
p720
F0.0
ssS'523'
p721
(dp722
S'25'
p723
F5.0
sS'210'
p724
F5.0
sS'694'
p725
F4.826517292406254
sS'211'
p726
F0.0
sS'1195'
p727
F4.0
sS'663'
p728
F3.0
sS'662'
p729
F4.0
sS'289'
p730
F0.0
sS'8'
p731
F0.0
sS'213'
p732
F0.0
ssS'421'
p733
(dp734
S'213'
p735
F0.0
sS'603'
p736
F5.0
sS'156'
p737
F0.0
sS'194'
p738
F0.0
sS'197'
p739
F0.0
sS'331'
p740
F0.0
sS'333'
p741
F0.0
sS'219'
p742
F0.0
sS'82'
p743
F0.0
sS'269'
p744
F0.0
ssS'420'
p745
(dp746
S'319'
p747
F0.0
sS'603'
p748
F0.0
sS'331'
p749
F0.0
sS'190'
p750
F0.0
sS'1347'
p751
F0.0
sS'270'
p752
F2.9999999999999996
sS'116'
p753
F5.0
sS'137'
p754
F5.0
sS'275'
p755
F0.0
sS'179'
p756
F0.0
ssS'423'
p757
(dp758
S'591'
p759
F4.0
sS'620'
p760
F1.0
sS'744'
p761
F5.0
sS'748'
p762
F0.0
sS'310'
p763
F3.160200001389733
sS'316'
p764
F4.619160575626727
sS'1265'
p765
F0.0
sS'313'
p766
F0.0
sS'258'
p767
F0.0
sS'750'
p768
F0.0
ssS'422'
p769
(dp770
S'217'
p771
F0.0
sS'760'
p772
F2.9443004613571744
sS'218'
p773
F3.9476361235742403
sS'219'
p774
F3.0000000000000004
sS'288'
p775
F0.0
sS'137'
p776
F3.0
sS'326'
p777
F3.0
sS'665'
p778
F0.0
sS'287'
p779
F3.0618243984049514
sS'286'
p780
F0.0
ssS'528'
p781
(dp782
S'203'
p783
F4.3258994254143905
sS'213'
p784
F2.0
sS'210'
p785
F4.588962230958601
sS'748'
p786
F2.9999999999999996
sS'194'
p787
F3.9077281676165105
sS'310'
p788
F4.140979952329084
sS'193'
p789
F4.36229256854665
sS'393'
p790
F3.0
sS'258'
p791
F0.0
sS'238'
p792
F3.8679753465038935
ssS'529'
p793
(dp794
S'319'
p795
F4.0
sS'880'
p796
F4.0
sS'886'
p797
F3.226850723615026
sS'749'
p798
F0.0
sS'310'
p799
F3.5013081576959433
sS'331'
p800
F0.0
sS'984'
p801
F0.0
sS'332'
p802
F4.0
sS'270'
p803
F3.0
sS'271'
p804
F4.0
ssS'427'
p805
(dp806
S'319'
p807
F0.0
sS'989'
p808
F0.0
sS'334'
p809
F0.0
sS'874'
p810
F0.0
sS'331'
p811
F0.0
sS'881'
p812
F0.0
sS'1265'
p813
F0.0
sS'332'
p814
F3.4303713777282234
sS'322'
p815
F0.0
sS'258'
p816
F0.0
ssS'426'
p817
(dp818
S'211'
p819
F4.020611167765579
sS'663'
p820
F3.150017911429964
sS'661'
p821
F3.693071029605541
sS'133'
p822
F3.671783725645525
sS'132'
p823
F4.077635164929685
sS'136'
p824
F3.7920838794821257
sS'135'
p825
F3.99086953546861
sS'134'
p826
F4.238885296400938
sS'494'
p827
F4.0791732421948605
sS'496'
p828
F4.359663196190411
ssS'449'
p829
(dp830
S'1142'
p831
F0.0
sS'459'
p832
F5.0
sS'742'
p833
F3.0
sS'212'
p834
F0.0
sS'558'
p835
F4.585699354112507
sS'748'
p836
F0.0
sS'983'
p837
F1.0
sS'337'
p838
F0.0
sS'310'
p839
F3.9111532282939567
sS'640'
p840
F1.0
ssS'448'
p841
(dp842
S'319'
p843
F0.0
sS'887'
p844
F3.769329994708828
sS'338'
p845
F0.0
sS'884'
p846
F0.0
sS'312'
p847
F0.0
sS'1062'
p848
F3.929124637094039
sS'316'
p849
F0.0
sS'333'
p850
F0.0
sS'270'
p851
F2.2227724551974544
sS'271'
p852
F0.0
ssS'412'
p853
(dp854
S'150'
p855
F0.0
sS'214'
p856
F0.0
sS'318'
p857
F4.0
sS'154'
p858
F0.0
sS'211'
p859
F0.0
sS'195'
p860
F5.0
sS'193'
p861
F0.0
sS'114'
p862
F4.0
sS'117'
p863
F0.0
sS'64'
p864
F0.0
ssS'443'
p865
(dp866
S'271'
p867
F0.0
sS'748'
p868
F0.0
sS'333'
p869
F0.0
sS'323'
p870
F2.5917659167769447
sS'258'
p871
F0.0
sS'340'
p872
F0.0
sS'327'
p873
F0.0
sS'343'
p874
F0.0
sS'313'
p875
F0.0
sS'175'
p876
F0.0
ssS'442'
p877
(dp878
S'217'
p879
F0.0
sS'26'
p880
F4.0
sS'769'
p881
F1.8322802010805244
sS'210'
p882
F3.6149808935769037
sS'665'
p883
F0.0
sS'218'
p884
F3.6483272446829327
sS'871'
p885
F2.1981122225445517
sS'164'
p886
F3.3450567356347833
sS'90'
p887
F0.0
sS'219'
p888
F3.2177647825309967
ssS'441'
p889
(dp890
S'25'
p891
F0.0
sS'751'
p892
F0.0
sS'15'
p893
F0.0
sS'313'
p894
F0.0
sS'300'
p895
F0.0
sS'1'
p896
F3.0
sS'121'
p897
F0.0
sS'405'
p898
F0.0
sS'7'
p899
F0.0
sS'282'
p900
F0.0
ssS'440'
p901
(dp902
S'883'
p903
F4.999999999999999
sS'319'
p904
F0.0
sS'886'
p905
F0.0
sS'313'
p906
F0.0
sS'312'
p907
F0.0
sS'310'
p908
F3.0
sS'1194'
p909
F4.999999999999999
sS'1265'
p910
F0.0
sS'988'
p911
F0.0
sS'213'
p912
F0.0
ssS'447'
p913
(dp914
S'1142'
p915
F0.0
sS'24'
p916
F0.0
sS'211'
p917
F4.0698168494434075
sS'762'
p918
F4.0
sS'760'
p919
F2.4187343049917476
sS'218'
p920
F3.4283982260402475
sS'133'
p921
F3.952043192257747
sS'498'
p922
F4.054345300868588
sS'135'
p923
F4.49998624028447
sS'227'
p924
F3.0
ssS'446'
p925
(dp926
S'883'
p927
F0.0
sS'880'
p928
F3.0000000000000004
sS'887'
p929
F2.0
sS'338'
p930
F0.0
sS'748'
p931
F3.0
sS'334'
p932
F2.0
sS'311'
p933
F3.0
sS'888'
p934
F0.0
sS'332'
p935
F2.0
sS'270'
p936
F2.468239267454156
ssS'445'
p937
(dp938
S'1143'
p939
F2.0
sS'23'
p940
F2.0
sS'762'
p941
F1.4171714146629806
sS'763'
p942
F0.0
sS'28'
p943
F0.0
sS'818'
p944
F1.7313855940488803
sS'288'
p945
F0.0
sS'346'
p946
F1.89807033440065
sS'340'
p947
F1.4626888031119805
sS'544'
p948
F1.0
ssS'444'
p949
(dp950
S'748'
p951
F0.0
sS'313'
p952
F0.0
sS'258'
p953
F0.0
sS'1483'
p954
F4.0
sS'271'
p955
F0.0
sS'272'
p956
F4.67339457998656
sS'275'
p957
F0.0
sS'9'
p958
F0.0
sS'269'
p959
F0.0
sS'251'
p960
F0.0
ssS'380'
p961
(dp962
S'217'
p963
F0.0
sS'215'
p964
F3.2611480767473924
sS'199'
p965
F3.8208488456347274
sS'213'
p966
F3.6273678519659702
sS'211'
p967
F3.549309934263503
sS'665'
p968
F0.0
sS'664'
p969
F3.0
sS'663'
p970
F4.023823264011815
sS'132'
p971
F3.868165257011189
sS'498'
p972
F3.566767027855133
ssS'381'
p973
(dp974
S'216'
p975
F4.21843392844242
sS'217'
p976
F0.0
sS'214'
p977
F0.0
sS'212'
p978
F0.0
sS'660'
p979
F3.154380758778329
sS'133'
p980
F4.238410476139961
sS'132'
p981
F4.642814766873402
sS'498'
p982
F4.38307258972581
sS'135'
p983
F4.5522854850087064
sS'134'
p984
F4.5493073340764445
ssS'382'
p985
(dp986
S'1142'
p987
F0.0
sS'150'
p988
F3.2805364174729066
sS'1268'
p989
F0.0
sS'334'
p990
F0.0
sS'197'
p991
F3.8053877044138122
sS'1229'
p992
F0.0
sS'332'
p993
F2.0
sS'258'
p994
F0.0
sS'135'
p995
F3.8624272513250606
sS'252'
p996
F3.0000000000000004
ssS'383'
p997
(dp998
S'604'
p999
F0.0
sS'319'
p1000
F0.0
sS'213'
p1001
F0.0
sS'603'
p1002
F4.62079516827287
sS'313'
p1003
F0.0
sS'197'
p1004
F0.0
sS'663'
p1005
F0.0
sS'316'
p1006
F4.331913375580652
sS'315'
p1007
F0.0
sS'58'
p1008
F0.0
ssS'384'
p1009
(dp1010
S'748'
p1011
F0.0
sS'989'
p1012
F4.0
sS'878'
p1013
F0.0
sS'879'
p1014
F0.0
sS'313'
p1015
F0.0
sS'316'
p1016
F5.0
sS'333'
p1017
F0.0
sS'289'
p1018
F0.0
sS'271'
p1019
F0.0
sS'258'
p1020
F0.0
ssS'385'
p1021
(dp1022
S'216'
p1023
F3.138324549090614
sS'1143'
p1024
F3.0
sS'215'
p1025
F1.9473811532705012
sS'693'
p1026
F2.9996240310931235
sS'210'
p1027
F3.589830579490417
sS'211'
p1028
F3.6700506672999302
sS'664'
p1029
F3.803564645131417
sS'663'
p1030
F4.130813675985596
sS'767'
p1031
F0.0
sS'1462'
p1032
F4.0817686347938515
ssS'386'
p1033
(dp1034
S'24'
p1035
F0.0
sS'833'
p1036
F0.0
sS'597'
p1037
F0.0
sS'982'
p1038
F0.0
sS'455'
p1039
F0.0
sS'323'
p1040
F0.0
sS'117'
p1041
F4.0
sS'273'
p1042
F0.0
sS'405'
p1043
F0.0
sS'118'
p1044
F3.0
ssS'387'
p1045
(dp1046
S'1143'
p1047
F0.0
sS'768'
p1048
F2.0
sS'215'
p1049
F3.2955066010231393
sS'210'
p1050
F3.6512457907457665
sS'217'
p1051
F0.0
sS'665'
p1052
F0.0
sS'663'
p1053
F4.125490233465446
sS'214'
p1054
F2.0
sS'218'
p1055
F3.9399242229287252
sS'219'
p1056
F2.3666089402796584
ssS'388'
p1057
(dp1058
S'591'
p1059
F3.8453256787162715
sS'569'
p1060
F5.0
sS'742'
p1061
F4.0
sS'769'
p1062
F5.0
sS'559'
p1063
F4.512884476207708
sS'313'
p1064
F0.0
sS'310'
p1065
F4.211984953857929
sS'333'
p1066
F0.0
sS'219'
p1067
F4.366608940279658
sS'117'
p1068
F4.0
ssS'389'
p1069
(dp1070
S'216'
p1071
F0.0
sS'217'
p1072
F0.0
sS'1147'
p1073
F4.307457033217464
sS'210'
p1074
F0.0
sS'211'
p1075
F0.0
sS'763'
p1076
F0.0
sS'664'
p1077
F4.097350538095736
sS'663'
p1078
F5.000000000000001
sS'662'
p1079
F4.0
sS'661'
p1080
F4.45736477554054
ssS'532'
p1081
(dp1082
S'216'
p1083
F4.692518815479876
sS'215'
p1084
F4.861742219738076
sS'210'
p1085
F4.858848069621586
sS'763'
p1086
F0.0
sS'218'
p1087
F4.301051256609603
sS'660'
p1088
F4.0
sS'769'
p1089
F0.0
sS'132'
p1090
F4.815651072368329
sS'318'
p1091
F4.929570164711318
sS'915'
p1092
F0.0
ssS'519'
p1093
(dp1094
S'336'
p1095
F3.823785807602636
sS'339'
p1096
F0.0
sS'748'
p1097
F0.0
sS'1062'
p1098
F5.0
sS'330'
p1099
F0.0
sS'333'
p1100
F0.0
sS'332'
p1101
F0.0
sS'313'
p1102
F0.0
sS'259'
p1103
F4.253283627196301
sS'887'
p1104
F0.0
ssS'518'
p1105
(dp1106
S'458'
p1107
F4.0
sS'151'
p1108
F0.0
sS'742'
p1109
F3.0
sS'595'
p1110
F5.000000000000001
sS'763'
p1111
F2.9999999999999996
sS'628'
p1112
F3.7015501680275116
sS'864'
p1113
F0.0
sS'117'
p1114
F3.0
sS'273'
p1115
F4.411134356139258
sS'920'
p1116
F0.0
ssS'533'
p1117
(dp1118
S'216'
p1119
F3.486862708391629
sS'1142'
p1120
F0.0
sS'215'
p1121
F4.186651770710457
sS'1147'
p1122
F3.3061332356415805
sS'210'
p1123
F3.4591271915924495
sS'211'
p1124
F3.9249369019231577
sS'663'
p1125
F3.884156766972507
sS'218'
p1126
F2.0
sS'660'
p1127
F2.9382922377330916
sS'133'
p1128
F3.7454522470348475
ssS'539'
p1129
(dp1130
S'153'
p1131
F0.0
sS'215'
p1132
F0.0
sS'155'
p1133
F0.0
sS'603'
p1134
F0.0
sS'197'
p1135
F0.0
sS'319'
p1136
F0.0
sS'661'
p1137
F4.103725508831123
sS'660'
p1138
F0.0
sS'133'
p1139
F4.0
sS'127'
p1140
F0.0
ssS'438'
p1141
(dp1142
S'21'
p1143
F0.0
sS'1028'
p1144
F0.0
sS'284'
p1145
F0.0
sS'252'
p1146
F0.0
sS'181'
p1147
F5.0
sS'281'
p1148
F0.0
sS'269'
p1149
F0.0
sS'237'
p1150
F0.0
sS'257'
p1151
F0.0
sS'255'
p1152
F0.0
ssS'439'
p1153
(dp1154
S'591'
p1155
F3.3996520248776245
sg899
F0.0
sS'1328'
p1156
F0.0
sS'288'
p1157
F0.0
sS'405'
p1158
F0.0
sS'273'
p1159
F0.0
sS'276'
p1160
F0.0
sS'100'
p1161
F0.0
sS'237'
p1162
F0.0
sS'257'
p1163
F0.0
ssS'436'
p1164
(dp1165
S'216'
p1166
F3.9322022384314153
sS'217'
p1167
F0.0
sS'215'
p1168
F4.193473171043197
sS'762'
p1169
F4.211670360280657
sS'763'
p1170
F4.0
sS'761'
p1171
F4.0
sS'218'
p1172
F3.1879680800285235
sS'219'
p1173
F4.0
sS'133'
p1174
F3.897502590020963
sS'132'
p1175
F2.909192631982452
ssS'510'
p1176
(dp1177
S'881'
p1178
F0.0
sS'288'
p1179
F0.0
sS'313'
p1180
F0.0
sS'330'
p1181
F0.0
sS'333'
p1182
F0.0
sS'457'
p1183
F0.0
sS'322'
p1184
F0.0
sS'748'
p1185
F0.0
sS'258'
p1186
F0.0
sS'259'
p1187
F0.0
ssS'513'
p1188
(dp1189
S'210'
p1190
F5.0
sS'763'
p1191
F0.0
sS'50'
p1192
F4.456981037107261
sS'118'
p1193
F5.0
sS'323'
p1194
F0.0
sS'117'
p1195
F5.0
sS'405'
p1196
F0.0
sS'252'
p1197
F4.0
sS'250'
p1198
F0.0
sS'257'
p1199
F5.0
ssS'435'
p1200
(dp1201
S'1069'
p1202
F4.0
sS'717'
p1203
F2.5849544624076306
sS'715'
p1204
F0.0
sS'299'
p1205
F0.0
sS'713'
p1206
F3.95187370342387
sS'710'
p1207
F3.6415037096195686
sS'818'
p1208
F0.0
sS'1061'
p1209
F0.0
sS'298'
p1210
F3.331916753643082
sS'343'
p1211
F2.876044889509781
ssS'432'
p1212
(dp1213
S'151'
p1214
F0.0
sS'150'
p1215
F3.541670250449481
sS'742'
p1216
F4.597094747817908
sS'620'
p1217
F0.0
sS'313'
p1218
F0.0
sS'763'
p1219
F5.0
sS'628'
p1220
F4.090083504732753
sS'315'
p1221
F3.531270771316341
sS'276'
p1222
F0.0
sS'257'
p1223
F5.0
ssS'433'
p1224
(dp1225
S'748'
p1226
F2.9999999999999996
sS'194'
p1227
F3.5911291814440855
sS'333'
p1228
F0.0
sS'457'
p1229
F0.0
sS'60'
p1230
F5.0
sS'919'
p1231
F0.0
sS'276'
p1232
F0.0
sS'137'
p1233
F0.0
sS'174'
p1234
F5.0
sS'173'
p1235
F0.0
ssS'430'
p1236
(dp1237
S'151'
p1238
F0.0
sS'318'
p1239
F3.7328755037800248
sS'744'
p1240
F5.0
sS'748'
p1241
F2.0
sS'628'
p1242
F5.0
sS'258'
p1243
F0.0
sS'1347'
p1244
F0.0
sS'117'
p1245
F3.0
sS'273'
p1246
F4.079921141910276
sS'276'
p1247
F0.0
ssS'516'
p1248
(dp1249
S'902'
p1250
F4.0
sS'214'
p1251
F0.0
sS'628'
p1252
F0.0
sS'199'
p1253
F0.0
sS'204'
p1254
F4.0
sS'194'
p1255
F0.0
sS'310'
p1256
F4.0
sS'191'
p1257
F0.0
sS'50'
p1258
F0.0
sS'660'
p1259
F0.0
ssS'458'
p1260
(dp1261
S'25'
p1262
F0.0
sS'696'
p1263
F4.38078070611636
sS'21'
p1264
F0.0
sS'762'
p1265
F0.0
sS'1261'
p1266
F3.199153207296972
sS'663'
p1267
F4.115271091826725
sS'137'
p1268
F4.0
sS'499'
p1269
F4.056147445186354
sS'134'
p1270
F4.013974845512954
sS'496'
p1271
F3.810942506781633
ssS'459'
p1272
(dp1273
S'216'
p1274
F2.896537659987726
sS'25'
p1275
F0.0
sS'696'
p1276
F0.0
sS'22'
p1277
F4.077817020613555
sS'134'
p1278
F3.910757059730425
sS'289'
p1279
F0.0
sS'405'
p1280
F0.0
sS'546'
p1281
F0.0
sS'127'
p1282
F3.7351663345462467
sg731
F0.0
ssS'450'
p1283
(dp1284
S'1140'
p1285
F2.890423029065752
sS'717'
p1286
F2.7979034908058074
sS'716'
p1287
F0.0
sS'715'
p1288
F0.0
sS'345'
p1289
F4.0
sS'347'
p1290
F3.9844962515377027
sS'340'
p1291
F0.0
sS'812'
p1292
F0.0
sS'504'
p1293
F4.720237608142237
sS'815'
p1294
F4.01558023514732
ssS'451'
p1295
(dp1296
S'995'
p1297
F1.0
sS'690'
p1298
F0.0
sS'678'
p1299
F3.0935123333005046
sS'990'
p1300
F1.0
sS'1265'
p1301
F1.9098685093251042
sS'289'
p1302
F0.0
sS'288'
p1303
F5.0
sS'938'
p1304
F2.01629097437299
sS'937'
p1305
F4.406989533114586
sS'286'
p1306
F0.0
ssS'452'
p1307
(dp1308
S'216'
p1309
F3.6530697746493805
sS'212'
p1310
F4.0
sS'213'
p1311
F3.1089319172877206
sS'210'
p1312
F3.8968441193973296
sS'211'
p1313
F3.7363527723262533
sS'663'
p1314
F3.4297229667070788
sS'661'
p1315
F4.009113391642178
sS'660'
p1316
F4.217881041640755
sS'132'
p1317
F3.8396132947477106
sS'498'
p1318
F3.8416151598245483
ssS'453'
p1319
(dp1320
S'24'
p1321
F0.0
sS'693'
p1322
F3.3455588034813295
sS'214'
p1323
F4.0
sS'215'
p1324
F4.0
sS'210'
p1325
F3.851429737030228
sS'1145'
p1326
F2.0
sS'763'
p1327
F2.0
sS'132'
p1328
F4.0
sS'90'
p1329
F3.0000000000000004
sS'496'
p1330
F0.0
ssS'454'
p1331
(dp1332
S'1269'
p1333
F0.0
sS'215'
p1334
F3.5637232543063018
sS'210'
p1335
F3.7068339303741507
sS'211'
p1336
F2.528176584942399
sS'661'
p1337
F2.6122320180993417
sS'660'
p1338
F2.775030423228578
sS'133'
p1339
F2.922630759320269
sS'132'
p1340
F3.18357936016594
sS'131'
p1341
F2.7904231486496487
sS'498'
p1342
F3.171536708295081
ssS'455'
p1343
(dp1344
S'217'
p1345
F0.0
sS'214'
p1346
F0.0
sS'213'
p1347
F4.48537595998701
sS'135'
p1348
F3.796380327771873
sS'662'
p1349
F0.0
sS'1265'
p1350
F0.0
sS'660'
p1351
F2.9246933397348256
sS'40'
p1352
F0.0
sS'126'
p1353
F3.5014371015788828
sS'549'
p1354
F3.33726576605769
ssS'456'
p1355
(dp1356
S'216'
p1357
F3.5192153335243876
sS'217'
p1358
F0.0
sS'214'
p1359
F0.0
sS'1547'
p1360
F0.0
sS'210'
p1361
F2.8567227719575548
sS'211'
p1362
F4.161724801530018
sS'955'
p1363
F0.0
sS'1267'
p1364
F2.52941690880312
sS'662'
p1365
F0.0
sS'1240'
p1366
F0.0
ssS'457'
p1367
(dp1368
S'216'
p1369
F0.0
sS'458'
p1370
F0.0
sS'1140'
p1371
F2.0
sS'769'
p1372
F0.0
sS'210'
p1373
F0.0
sS'664'
p1374
F4.583245265747273
sS'214'
p1375
F0.0
sS'218'
p1376
F4.0
sS'219'
p1377
F0.0
sS'133'
p1378
F0.0
ssS'413'
p1379
(dp1380
S'628'
p1381
F0.0
sS'333'
p1382
F0.0
sS'332'
p1383
F0.0
sS'270'
p1384
F0.0
sS'271'
p1385
F0.0
sS'258'
p1386
F0.0
sS'273'
p1387
F0.0
sS'275'
p1388
F0.0
sS'276'
p1389
F0.0
sS'100'
p1390
F0.0
ssS'542'
p1391
(dp1392
S'693'
p1393
F2.984960349038973
sS'214'
p1394
F3.0
sS'22'
p1395
F3.876031752437118
sS'210'
p1396
F3.871135338424435
sS'23'
p1397
F4.356167836878709
sS'763'
p1398
F2.0
sS'871'
p1399
F3.137397695017991
sS'132'
p1400
F4.037568745236852
sS'734'
p1401
F2.9212450730683615
sS'496'
p1402
F4.18986294448654
ssS'543'
p1403
(dp1404
S'216'
p1405
F3.7906666789372254
sS'214'
p1406
F0.0
sS'212'
p1407
F3.0000000000000004
sS'210'
p1408
F4.000633725770024
sS'211'
p1409
F3.8881854630819226
sS'1262'
p1410
F0.0
sS'664'
p1411
F3.39625856088104
sS'663'
p1412
F3.927975595313866
sS'218'
p1413
F4.0
sS'660'
p1414
F3.809082084109863
ssS'530'
p1415
(dp1416
S'1226'
p1417
F0.0
sS'214'
p1418
F0.0
sS'1300'
p1419
F0.0
sS'156'
p1420
F0.0
sS'195'
p1421
F0.0
sS'196'
p1422
F0.0
sS'191'
p1423
F2.9999999999999996
sS'319'
p1424
F0.0
sS'333'
p1425
F0.0
sS'660'
p1426
F0.0
ssS'540'
p1427
(dp1428
S'591'
p1429
F3.7290209173720874
sS'150'
p1430
F3.735579016748291
sS'742'
p1431
F3.0
sS'597'
p1432
F0.0
sS'741'
p1433
F0.0
sS'762'
p1434
F2.9999999999999996
sS'310'
p1435
F3.7156815863116943
sS'455'
p1436
F0.0
sS'276'
p1437
F0.0
sS'269'
p1438
F4.219758995540748
ssS'482'
p1439
(dp1440
S'881'
p1441
F0.0
sS'876'
p1442
F0.0
sS'748'
p1443
F4.0
sS'311'
p1444
F3.6808215535366173
sS'988'
p1445
F2.0
sS'315'
p1446
F3.8486360385566813
sS'289'
p1447
F0.0
sS'313'
p1448
F0.0
sS'258'
p1449
F0.0
sS'257'
p1450
F0.0
ssS'541'
p1451
(dp1452
S'459'
p1453
F0.0
sS'215'
p1454
F3.896703743034656
sS'210'
p1455
F4.271038918263598
sS'1078'
p1456
F3.128666697046277
sS'763'
p1457
F0.0
sS'1074'
p1458
F4.0
sS'699'
p1459
F3.0000000000000004
sS'660'
p1460
F4.153233526820611
sS'769'
p1461
F2.0850722609864847
sS'139'
p1462
F2.5261294815076223
ssS'508'
p1463
(dp1464
S'216'
p1465
F3.88590126550757
sS'214'
p1466
F0.0
sS'215'
p1467
F4.027621206123298
sS'210'
p1468
F3.519405165404328
sS'211'
p1469
F4.584937487900115
sS'23'
p1470
F4.6885725692582785
sS'218'
p1471
F4.0
sS'219'
p1472
F0.0
sS'132'
p1473
F4.720082045909213
sS'96'
p1474
F3.6002592700837646
ssS'509'
p1475
(dp1476
S'892'
p1477
F1.0
sS'690'
p1478
F0.0
sS'338'
p1479
F2.0
sS'603'
p1480
F0.0
sS'705'
p1481
F0.0
sS'310'
p1482
F4.0
sS'319'
p1483
F0.0
sS'332'
p1484
F4.0
sS'271'
p1485
F0.0
sS'258'
p1486
F3.1033825928788343
ssS'506'
p1487
(dp1488
S'216'
p1489
F0.0
sS'215'
p1490
F5.0
sS'210'
p1491
F0.0
sS'211'
p1492
F0.0
sS'762'
p1493
F0.0
sS'665'
p1494
F4.0
sS'761'
p1495
F4.0
sS'663'
p1496
F5.000000000000001
sS'662'
p1497
F0.0
sS'661'
p1498
F4.431995589666679
ssS'507'
p1499
(dp1500
S'319'
p1501
F5.0
sS'338'
p1502
F4.999999999999999
sS'597'
p1503
F0.0
sS'748'
p1504
F5.0
sS'334'
p1505
F0.0
sS'310'
p1506
F4.67775940308526
sS'316'
p1507
F4.93444312280543
sS'1089'
p1508
F3.1883496633537916
sS'271'
p1509
F5.0
sS'117'
p1510
F5.0
ssS'504'
p1511
(dp1512
S'216'
p1513
F3.943958003883474
sS'214'
p1514
F0.0
sS'215'
p1515
F3.8678411344428416
sS'212'
p1516
F4.0
sS'1147'
p1517
F3.746240697242574
sS'210'
p1518
F3.5187880854148297
sS'211'
p1519
F3.983453486145432
sS'1263'
p1520
F2.283122544164701
sS'664'
p1521
F3.0
sS'218'
p1522
F3.7906615847050205
ssS'505'
p1523
(dp1524
S'692'
p1525
F4.0
sS'22'
p1526
F3.168379660019511
sS'210'
p1527
F3.214879749521
sS'660'
p1528
F3.0
sS'133'
p1529
F3.584847729046205
sS'132'
p1530
F3.485178361621124
sS'498'
p1531
F3.579664985271103
sS'495'
p1532
F3.5452047569605107
sS'496'
p1533
F3.425456817309162
sS'491'
p1534
F1.802050900754372
ssS'502'
p1535
(dp1536
S'751'
p1537
F0.0
sS'338'
p1538
F2.717251423734511
sS'271'
p1539
F3.0
sS'313'
p1540
F0.0
sS'879'
p1541
F0.0
sS'333'
p1542
F0.0
sS'270'
p1543
F0.0
sS'323'
p1544
F3.0
sS'258'
p1545
F0.0
sS'259'
p1546
F2.526624875205674
ssS'503'
p1547
(dp1548
S'216'
p1549
F0.0
sS'213'
p1550
F0.0
sS'210'
p1551
F0.0
sS'211'
p1552
F0.0
sS'662'
p1553
F0.0
sS'133'
p1554
F0.0
sS'132'
p1555
F0.0
sS'130'
p1556
F0.0
sS'137'
p1557
F0.0
sS'134'
p1558
F5.0
ssS'500'
p1559
(dp1560
S'216'
p1561
F3.5643795926574917
sS'217'
p1562
F0.0
sS'768'
p1563
F3.0
sS'215'
p1564
F3.461902308763249
sS'210'
p1565
F3.2975828521132384
sS'211'
p1566
F4.130599992936613
sS'762'
p1567
F3.645378764960891
sS'665'
p1568
F0.0
sS'1195'
p1569
F0.0
sS'662'
p1570
F0.0
ssS'501'
p1571
(dp1572
S'151'
p1573
F0.0
sS'150'
p1574
F3.9082432241588223
sS'1081'
p1575
F3.378743050362519
sS'741'
p1576
F0.0
sS'313'
p1577
F0.0
sS'628'
p1578
F3.5448227621829416
sS'456'
p1579
F3.6458731116417
sS'117'
p1580
F0.0
sS'273'
p1581
F3.4749634152385624
sS'248'
p1582
F3.666858501368414
ssS'469'
p1583
(dp1584
S'605'
p1585
F0.0
sS'607'
p1586
F5.0
sS'152'
p1587
F3.0
sS'199'
p1588
F0.0
sS'603'
p1589
F5.0
sS'705'
p1590
F0.0
sS'153'
p1591
F0.0
sS'215'
p1592
F0.0
sS'64'
p1593
F0.0
sS'510'
p1594
F0.0
ssS'468'
p1595
(dp1596
S'692'
p1597
F5.0
sS'216'
p1598
F4.319735989694038
sS'214'
p1599
F0.0
sS'25'
p1600
F0.0
sS'955'
p1601
F0.0
sS'662'
p1602
F0.0
sS'218'
p1603
F2.0
sS'132'
p1604
F4.38817245505642
sS'498'
p1605
F4.360917460639691
sS'135'
p1606
F4.394636313461627
ssS'465'
p1607
(dp1608
S'216'
p1609
F3.303858028747314
sS'151'
p1610
F0.0
sS'319'
p1611
F0.0
sS'318'
p1612
F4.240644416865146
sS'199'
p1613
F3.6198749202573417
sS'198'
p1614
F3.2281547867892777
sS'603'
p1615
F3.78622629973583
sS'194'
p1616
F3.421367163433289
sS'191'
p1617
F3.501724175000403
sS'190'
p1618
F3.440021910848779
ssS'464'
p1619
(dp1620
S'1226'
p1621
F0.0
sS'709'
p1622
F4.231119906225551
sS'603'
p1623
F5.000000000000001
sS'748'
p1624
F0.0
sS'194'
p1625
F0.0
sS'333'
p1626
F0.0
sS'332'
p1627
F4.0
sS'270'
p1628
F4.407590818399152
sS'127'
p1629
F0.0
sS'248'
p1630
F4.548256683038574
ssS'467'
p1631
(dp1632
S'1142'
p1633
F0.0
sS'150'
p1634
F4.029690524545109
sS'742'
p1635
F0.0
sS'1226'
p1636
F0.0
sS'762'
p1637
F0.0
sS'455'
p1638
F0.0
sS'117'
p1639
F0.0
sS'273'
p1640
F3.0
sS'127'
p1641
F4.0
sS'269'
p1642
F4.097937239698459
ssS'466'
p1643
(dp1644
S'24'
p1645
F0.0
sS'27'
p1646
F0.0
sS'22'
p1647
F3.652143606904729
sS'210'
p1648
F3.4627419138555426
sS'344'
p1649
F0.0
sS'288'
p1650
F0.0
sS'346'
p1651
F3.4434409516216404
sS'546'
p1652
F0.0
sS'4'
p1653
F4.3581946647977725
sS'349'
p1654
F2.0
ssS'461'
p1655
(dp1656
S'319'
p1657
F0.0
sS'748'
p1658
F2.9999999999999996
sS'158'
p1659
F0.0
sS'259'
p1660
F0.0
sS'575'
p1661
F0.0
sS'313'
p1662
F0.0
sS'258'
p1663
F0.0
sS'347'
p1664
F2.0
sS'327'
p1665
F0.0
sS'255'
p1666
F0.0
ssS'460'
p1667
(dp1668
S'458'
p1669
F4.0
sS'591'
p1670
F3.269917071302719
sS'744'
p1671
F3.5309249864331345
sS'313'
p1672
F3.0
sS'312'
p1673
F0.0
sS'311'
p1674
F3.487098084406091
sS'258'
p1675
F0.0
sS'273'
p1676
F3.5481752943345946
sS'137'
p1677
F3.0
sS'242'
p1678
F0.0
ssS'463'
p1679
(dp1680
S'740'
p1681
F3.3041278569020744
sS'25'
p1682
F4.0
sS'690'
p1683
F3.2771424376784464
sS'20'
p1684
F0.0
sS'21'
p1685
F1.432531970958676
sS'870'
p1686
F2.1676709393189246
sS'137'
p1687
F2.798034261979984
sS'764'
p1688
F0.0
sS'24'
p1689
F3.115056445775561
sS'225'
p1690
F1.5991753745436232
ssS'462'
p1691
(dp1692
S'313'
p1693
F0.0
sS'310'
p1694
F3.961469694309385
sS'330'
p1695
F0.0
sS'315'
p1696
F4.853255876899326
sS'332'
p1697
F5.0
sS'271'
p1698
F0.0
sS'272'
p1699
F0.0
sS'259'
p1700
F2.0
sS'136'
p1701
F0.0
sS'181'
p1702
F5.0
ssS'546'
p1703
(dp1704
S'458'
p1705
F0.0
sS'590'
p1706
F3.552007082332111
sS'892'
p1707
F1.0
sS'769'
p1708
F4.0
sS'200'
p1709
F3.1377529384901437
sS'313'
p1710
F0.0
sS'760'
p1711
F0.0
sS'457'
p1712
F3.6935204891642885
sS'271'
p1713
F1.0
sS'258'
p1714
F0.0
ssS'547'
p1715
(dp1716
S'319'
p1717
F0.0
sS'338'
p1718
F0.0
sS'313'
p1719
F0.0
sS'312'
p1720
F0.0
sS'311'
p1721
F0.0
sS'316'
p1722
F0.0
sS'333'
p1723
F0.0
sS'332'
p1724
F0.0
sS'289'
p1725
F0.0
sS'258'
p1726
F0.0
ssS'479'
p1727
(dp1728
S'216'
p1729
F3.4553801452166493
sS'1142'
p1730
F0.0
sS'215'
p1731
F3.5449060678094746
sS'213'
p1732
F3.7662798229287158
sS'210'
p1733
F3.958253089974795
sS'211'
p1734
F3.99946040664096
sS'133'
p1735
F3.706561765661788
sS'131'
p1736
F3.3290627586037376
sS'66'
p1737
F2.992040477521852
sS'264'
p1738
F1.550755624178766
ssS'544'
p1739
(dp1740
S'338'
p1741
F2.0
sS'271'
p1742
F0.0
sS'748'
p1743
F2.0
sS'749'
p1744
F0.0
sS'310'
p1745
F3.696000687560878
sS'331'
p1746
F4.0
sS'332'
p1747
F3.0
sS'270'
p1748
F3.0
sS'313'
p1749
F0.0
sS'258'
p1750
F0.0
ssS'559'
p1751
(dp1752
S'216'
p1753
F3.2476066707232962
sS'153'
p1754
F3.5500308254115405
sS'318'
p1755
F3.71074798860991
sS'199'
p1756
F4.136430618232588
sS'210'
p1757
F4.0
sS'195'
p1758
F5.0
sS'194'
p1759
F3.961610402911812
sS'197'
p1760
F3.3418019802717316
sS'196'
p1761
F2.7515361016203252
sS'521'
p1762
F3.51902217571751
ssS'558'
p1763
(dp1764
S'847'
p1765
F4.792955851347485
sS'1068'
p1766
F5.0
sS'744'
p1767
F4.134167867539397
sS'14'
p1768
F0.0
sS'19'
p1769
F0.0
sS'15'
p1770
F0.0
sS'137'
p1771
F0.0
sS'20'
p1772
F0.0
sS'269'
p1773
F0.0
sS'100'
p1774
F0.0
ssS'555'
p1775
(dp1776
S'150'
p1777
F0.0
sS'319'
p1778
F0.0
sS'318'
p1779
F4.0
sS'271'
p1780
F0.0
sS'748'
p1781
F0.0
sS'50'
p1782
F5.0
sS'762'
p1783
F0.0
sS'117'
p1784
F0.0
sS'89'
p1785
F0.0
sS'265'
p1786
F0.0
ssS'554'
p1787
(dp1788
S'216'
p1789
F3.996706808642838
sS'692'
p1790
F3.532239507655992
sS'215'
p1791
F4.330571575099702
sS'696'
p1792
F3.0
sS'21'
p1793
F3.403534589561976
sS'22'
p1794
F4.372024143605866
sS'218'
p1795
F3.0
sS'133'
p1796
F4.451808990586613
sS'132'
p1797
F4.304119940676446
sS'95'
p1798
F4.090568368852058
ssS'557'
p1799
(dp1800
S'150'
p1801
F4.031265122473564
sS'887'
p1802
F0.0
sS'198'
p1803
F4.2615426790068
sS'334'
p1804
F0.0
sS'197'
p1805
F4.197112794262075
sS'270'
p1806
F3.0
sS'271'
p1807
F3.0
sS'252'
p1808
F2.9550011028518863
sS'176'
p1809
F5.0
sS'337'
p1810
F0.0
ssS'556'
p1811
(dp1812
S'604'
p1813
F0.0
sS'988'
p1814
F0.0
sS'318'
p1815
F5.0
sS'603'
p1816
F5.0
sS'319'
p1817
F0.0
sS'192'
p1818
F4.381751658381581
sS'133'
p1819
F0.0
sS'132'
p1820
F0.0
sS'64'
p1821
F0.0
sS'178'
p1822
F4.532724601850708
ssS'551'
p1823
(dp1824
S'216'
p1825
F0.0
sS'693'
p1826
F4.0
sS'215'
p1827
F4.0
sS'210'
p1828
F0.0
sS'217'
p1829
F0.0
sS'762'
p1830
F0.0
sS'760'
p1831
F0.0
sS'1303'
p1832
F0.0
sS'955'
p1833
F4.434706577540295
sS'66'
p1834
F3.466175980368295
ssS'550'
p1835
(dp1836
S'596'
p1837
F0.0
sS'748'
p1838
F2.9999999999999996
sS'310'
p1839
F4.006748418166009
sS'1089'
p1840
F2.9999999999999996
sS'271'
p1841
F3.0
sS'258'
p1842
F0.0
sS'259'
p1843
F2.0
sS'275'
p1844
F0.0
sS'252'
p1845
F2.461715226715821
sS'313'
p1846
F0.0
ssS'553'
p1847
(dp1848
S'213'
p1849
F4.076609602335633
sS'218'
p1850
F0.0
sS'132'
p1851
F4.317115714905092
sS'131'
p1852
F3.375636200470683
sS'498'
p1853
F4.418982007825361
sS'136'
p1854
F5.0
sS'135'
p1855
F4.23107471822103
sS'134'
p1856
F4.519508098394044
sS'496'
p1857
F4.529651328984207
sS'497'
p1858
F4.0
ssS'552'
p1859
(dp1860
S'591'
p1861
F3.220588512294709
sS'151'
p1862
F0.0
sS'742'
p1863
F3.402905252182091
sS'620'
p1864
F3.0
sS'1095'
p1865
F0.0
sS'748'
p1866
F4.0
sS'760'
p1867
F2.285344268398489
sS'336'
p1868
F2.501998895238748
sS'126'
p1869
F4.0
sS'257'
p1870
F0.0
ssS'545'
p1871
(dp1872
S'217'
p1873
F3.0
sS'215'
p1874
F4.402192319513725
sS'210'
p1875
F4.131177157713802
sS'211'
p1876
F3.1944676994309846
sS'665'
p1877
F0.0
sS'218'
p1878
F3.0
sS'219'
p1879
F0.0
sS'132'
p1880
F3.758591754284315
sS'135'
p1881
F3.725947657433803
sS'139'
p1882
F2.806059450704066
ssS'560'
p1883
(dp1884
S'24'
p1885
F0.0
sS'25'
p1886
F0.0
sS'211'
p1887
F4.0
sS'127'
p1888
F4.3810672586472075
sS'1265'
p1889
F0.0
sS'132'
p1890
F3.8424016979644686
sS'498'
p1891
F4.0687414568235285
sS'136'
p1892
F4.0
sS'134'
p1893
F4.291503776608542
sS'496'
p1894
F3.9442489333996424
ssS'488'
p1895
(dp1896
S'216'
p1897
F3.4608511048166672
sS'215'
p1898
F3.6430846589670582
sS'210'
p1899
F3.5011941222948693
sS'211'
p1900
F3.0731342058487283
sS'662'
p1901
F0.0
sS'133'
p1902
F2.926728247475779
sS'132'
p1903
F3.56074633318204
sS'498'
p1904
F3.299358377004074
sS'136'
p1905
F3.75187138080199
sS'135'
p1906
F3.3634787456665083
ssS'561'
p1907
(dp1908
S'1069'
p1909
F4.0
sS'199'
p1910
F3.735940334829521
sS'719'
p1911
F1.0
sS'715'
p1912
F0.0
sS'664'
p1913
F3.4090763487265505
sS'710'
p1914
F2.693777150991769
sS'345'
p1915
F3.0
sS'346'
p1916
F3.1640359238707543
sS'343'
p1917
F2.0
sS'811'
p1918
F3.316688978586492
ssS'562'
p1919
(dp1920
S'591'
p1921
F3.5985139351970448
sS'458'
p1922
F0.0
sS'153'
p1923
F4.0
sS'318'
p1924
F3.0660587378344384
sS'194'
p1925
F3.3763923975518044
sS'197'
p1926
F3.3742738368947207
sS'191'
p1927
F2.8743135123743344
sS'190'
p1928
F3.567786677953269
sS'218'
p1929
F5.0
sS'135'
p1930
F2.8390091055863826
ssS'477'
p1931
(dp1932
S'709'
p1933
F0.0
sS'451'
p1934
F0.0
sS'553'
p1935
F4.2514896357768865
sS'289'
p1936
F0.0
sS'88'
p1937
F0.0
sS'111'
p1938
F0.0
sS'275'
p1939
F0.0
sS'66'
p1940
F0.0
sS'237'
p1941
F0.0
sS'255'
p1942
F0.0
ssS'563'
p1943
(dp1944
S'692'
p1945
F4.0
sS'153'
p1946
F0.0
sS'210'
p1947
F5.0
sS'257'
p1948
F0.0
sS'181'
p1949
F0.0
sS'237'
p1950
F0.0
sS'118'
p1951
F0.0
sS'172'
p1952
F5.0
sS'254'
p1953
F0.0
sS'255'
p1954
F3.7638998787130755
ssS'564'
p1955
(dp1956
S'831'
p1957
F0.0
sS'597'
p1958
F0.0
sS'313'
p1959
F0.0
sS'312'
p1960
F0.0
sS'258'
p1961
F0.0
sS'333'
p1962
F0.0
sS'289'
p1963
F0.0
sS'117'
p1964
F0.0
sS'257'
p1965
F0.0
sS'272'
p1966
F0.0
ssS'511'
p1967
(dp1968
S'880'
p1969
F0.0
sS'887'
p1970
F0.0
sS'288'
p1971
F0.0
sS'313'
p1972
F0.0
sS'872'
p1973
F2.0
sS'333'
p1974
F0.0
sS'322'
p1975
F0.0
sS'271'
p1976
F4.0
sS'346'
p1977
F4.53465461604085
sS'1527'
p1978
F0.0
ssS'489'
p1979
(dp1980
S'872'
p1981
F2.3133663055126306
sS'1613'
p1982
F3.182856439181218
sS'1265'
p1983
F0.0
sS'289'
p1984
F0.0
sS'288'
p1985
F0.0
sS'346'
p1986
F4.0
sS'347'
p1987
F4.0
sS'340'
p1988
F0.0
sS'342'
p1989
F3.4399289428058664
sS'343'
p1990
F4.066149483751219
ssS'437'
p1991
(dp1992
S'216'
p1993
F3.809387135989444
sS'217'
p1994
F3.0
sS'214'
p1995
F0.0
sS'215'
p1996
F3.6405370163230057
sS'212'
p1997
F0.0
sS'213'
p1998
F3.531251122445951
sS'210'
p1999
F3.818353062323537
sS'211'
p2000
F4.156006378468244
sS'1262'
p2001
F0.0
sS'665'
p2002
F0.0
ssS'487'
p2003
(dp2004
S'216'
p2005
F4.052653295655042
sS'768'
p2006
F4.0
sS'215'
p2007
F4.247452418505711
sS'210'
p2008
F4.131948392101383
sS'313'
p2009
F4.498919667047979
sS'42'
p2010
F3.0
sS'218'
p2011
F4.444940155586158
sS'133'
p2012
F4.365920753363985
sS'578'
p2013
F3.175160723551984
sS'178'
p2014
F4.2174590141456
ssS'486'
p2015
(dp2016
S'1142'
p2017
F0.0
sS'1143'
p2018
F5.0
sS'1302'
p2019
F0.0
sS'459'
p2020
F3.470900042770213
sS'762'
p2021
F3.0401482559450868
sS'766'
p2022
F3.382899498416575
sS'1610'
p2023
F3.852422663266437
sS'137'
p2024
F5.0
sS'264'
p2025
F2.0160088006804484
sS'1226'
p2026
F4.0
ssS'485'
p2027
(dp2028
S'319'
p2029
F0.0
sS'345'
p2030
F0.0
sS'748'
p2031
F1.0
sS'311'
p2032
F3.6874374507783587
sS'330'
p2033
F0.0
sS'289'
p2034
F0.0
sS'313'
p2035
F0.0
sS'346'
p2036
F3.509806494945245
sS'347'
p2037
F4.0
sS'288'
p2038
F0.0
ssS'484'
p2039
(dp2040
S'216'
p2041
F4.335305052338055
sS'692'
p2042
F3.8365048690276544
sS'22'
p2043
F4.8774051436396935
sS'210'
p2044
F4.8569862718401575
sS'211'
p2045
F4.182250483953866
sS'665'
p2046
F0.0
sS'699'
p2047
F5.0
sS'136'
p2048
F4.0
sS'135'
p2049
F4.30695405859747
sS'25'
p2050
F0.0
ssS'483'
p2051
(dp2052
S'151'
p2053
F0.0
sS'449'
p2054
F3.0
sS'318'
p2055
F0.0
sS'199'
p2056
F3.0
sS'313'
p2057
F4.0
sS'197'
p2058
F0.0
sS'270'
p2059
F5.0
sS'271'
p2060
F0.0
sS'258'
p2061
F2.916136494815802
sS'116'
p2062
F2.2717368737210815
ssS'434'
p2063
(dp2064
S'151'
p2065
F0.0
sS'1095'
p2066
F4.0
sS'743'
p2067
F1.0
sS'1051'
p2068
F5.0
sS'763'
p2069
F5.0
sS'628'
p2070
F3.658247441082421
sS'111'
p2071
F3.6419924399762293
sS'275'
p2072
F0.0
sS'237'
p2073
F0.0
sS'118'
p2074
F4.0
ssS'481'
p2075
(dp2076
S'216'
p2077
F4.404211933221178
sS'153'
p2078
F4.0
sS'318'
p2079
F4.0
sS'199'
p2080
F4.312182466637426
sS'198'
p2081
F4.444282292837242
sS'210'
p2082
F3.548145703460127
sS'596'
p2083
F0.0
sS'313'
p2084
F0.0
sS'197'
p2085
F4.319755748755098
sS'70'
p2086
F3.4261414397197942
ssS'480'
p2087
(dp2088
S'319'
p2089
F0.0
sS'152'
p2090
F0.0
sS'213'
p2091
F0.0
sS'603'
p2092
F4.0
sS'705'
p2093
F0.0
sS'197'
p2094
F0.0
sS'191'
p2095
F0.0
sS'50'
p2096
F3.0
sS'661'
p2097
F3.6984117958328357
sS'190'
p2098
F0.0
ssS'512'
p2099
(dp2100
S'11'
p2101
F5.0
sS'318'
p2102
F0.0
sS'198'
p2103
F4.492557445772479
sS'23'
p2104
F5.0
sS'313'
p2105
F0.0
sS'1238'
p2106
F0.0
sS'302'
p2107
F0.0
sS'56'
p2108
F0.0
sS'191'
p2109
F4.0
sS'273'
p2110
F0.0
ssS'515'
p2111
(dp2112
S'750'
p2113
F0.0
sS'895'
p2114
F4.0
sS'748'
p2115
F2.9999999999999996
sS'310'
p2116
F2.9586791771531127
sS'315'
p2117
F2.639858455209735
sS'332'
p2118
F2.8640878782806287
sS'289'
p2119
F0.0
sS'271'
p2120
F3.0
sS'258'
p2121
F0.0
sS'313'
p2122
F0.0
ssS'514'
p2123
(dp2124
S'216'
p2125
F4.213277800207604
sS'214'
p2126
F0.0
sS'215'
p2127
F4.6183470833951485
sS'210'
p2128
F4.295980850164212
sS'211'
p2129
F4.032945306537899
sS'132'
p2130
F4.008708707646573
sS'137'
p2131
F5.0
sS'136'
p2132
F3.6744016679530422
sS'135'
p2133
F3.8209125211143173
sS'134'
p2134
F4.1025283454275225
ssS'472'
p2135
(dp2136
S'216'
p2137
F4.399536261930469
sS'217'
p2138
F0.0
sS'768'
p2139
F4.684647441452242
sS'215'
p2140
F4.691506256215709
sS'210'
p2141
F4.674273199188857
sS'313'
p2142
F5.0
sS'763'
p2143
F5.0
sS'665'
p2144
F0.0
sS'214'
p2145
F4.0
sS'218'
p2146
F3.837162378971015
ssS'473'
p2147
(dp2148
S'1142'
p2149
F4.389535446655688
sS'1129'
p2150
F5.0
sS'319'
p2151
F0.0
sS'1143'
p2152
F3.8390776352166265
sS'273'
p2153
F2.0
sS'137'
p2154
F0.0
sS'275'
p2155
F0.0
sS'276'
p2156
F5.0
sS'127'
p2157
F0.0
sS'256'
p2158
F2.0
ssS'470'
p2159
(dp2160
S'458'
p2161
F0.0
sS'150'
p2162
F3.4261640364044976
sS'742'
p2163
F3.513745188932643
sS'1084'
p2164
F4.460062337962184
sS'319'
p2165
F0.0
sS'258'
p2166
F0.0
sS'273'
p2167
F5.0
sS'137'
p2168
F4.0
sS'276'
p2169
F5.0
sS'257'
p2170
F0.0
ssS'471'
p2171
(dp2172
S'151'
p2173
F0.0
sg271
F0.0
sS'768'
p2174
F4.999999999999999
sS'627'
p2175
F0.0
sS'878'
p2176
F0.0
sS'596'
p2177
F2.0
sS'50'
p2178
F0.0
sS'393'
p2179
F0.0
sS'82'
p2180
F4.0
sS'172'
p2181
F0.0
ssS'476'
p2182
(dp2183
S'216'
p2184
F4.417983227401488
sS'201'
p2185
F3.3785177873070666
sS'319'
p2186
F4.0
sS'746'
p2187
F3.5486949743621112
sS'211'
p2188
F4.583281911798473
sS'748'
p2189
F2.9999999999999996
sS'194'
p2190
F4.054458196829231
sS'579'
p2191
F3.4409687341994895
sS'384'
p2192
F2.3959601658006244
sS'70'
p2193
F3.4261414397197942
ssS'517'
p2194
(dp2195
S'740'
p2196
F0.0
sS'597'
p2197
F3.46600221329511
sS'335'
p2198
F0.0
sS'311'
p2199
F0.0
sS'761'
p2200
F2.840344985436558
sS'117'
p2201
F0.0
sS'333'
p2202
F0.0
sS'258'
p2203
F0.0
sS'111'
p2204
F0.0
sS'275'
p2205
F0.0
ssS'474'
p2206
(dp2207
S'216'
p2208
F0.0
sS'215'
p2209
F4.51275269832117
sS'212'
p2210
F0.0
sS'213'
p2211
F0.0
sS'210'
p2212
F0.0
sS'211'
p2213
F0.0
sS'664'
p2214
F4.174221358517751
sS'663'
p2215
F5.000000000000001
sS'1200'
p2216
F4.08488964088956
sS'66'
p2217
F4.0
ssS'475'
p2218
(dp2219
S'902'
p2220
F0.0
sS'313'
p2221
F0.0
sS'303'
p2222
F3.3836430330371448
sS'316'
p2223
F3.7239785656124234
sS'315'
p2224
F3.687103442370108
sS'354'
p2225
F0.0
sS'381'
p2226
F4.0
sS'259'
p2227
F0.0
sS'127'
p2228
F0.0
sS'50'
p2229
F0.0
ssS'478'
p2230
(dp2231
S'216'
p2232
F3.9971206520809774
sS'26'
p2233
F4.563337487324883
sS'23'
p2234
F4.118454688304393
sS'762'
p2235
F0.0
sS'763'
p2236
F5.0
sS'218'
p2237
F4.241705960414491
sS'219'
p2238
F5.0
sS'137'
p2239
F1.0
sS'134'
p2240
F4.387231766585266
sS'496'
p2241
F4.204597259421509
ssS'431'
p2242
(dp2243
S'988'
p2244
F0.0
sS'879'
p2245
F0.0
sS'748'
p2246
F0.0
sS'302'
p2247
F0.0
sS'303'
p2248
F0.0
sS'690'
p2249
F0.0
sS'332'
p2250
F0.0
sS'245'
p2251
F0.0
sS'300'
p2252
F0.0
sS'754'
p2253
F0.0
ss.