(dp0
S'534'
p1
(dp2
S'591'
p3
F0.0
sS'151'
p4
F0.0
sS'742'
p5
F0.0
sS'595'
p6
F0.0
sS'1327'
p7
F0.0
sS'597'
p8
F0.0
sS'150'
p9
F0.0
sS'748'
p10
F0.0
sS'763'
p11
F0.0
sS'760'
p12
F0.0
ssS'498'
p13
(dp14
S'1142'
p15
F0.0
sS'212'
p16
F0.0
sS'210'
p17
F0.0
sS'664'
p18
F0.0
sS'663'
p19
F0.0
sS'218'
p20
F0.0
sS'137'
p21
F0.0
sS'136'
p22
F0.0
sS'135'
p23
F0.0
sS'134'
p24
F0.0
ssS'499'
p25
(dp26
S'692'
p27
F0.0
sS'215'
p28
F0.0
sS'213'
p29
F0.0
sS'210'
p30
F0.0
sS'664'
p31
F0.0
sS'663'
p32
F0.0
sS'661'
p33
F0.0
sS'132'
p34
F0.0
sS'136'
p35
F0.0
sS'497'
p36
F0.0
ssS'494'
p37
(dp38
S'199'
p39
F0.0
sS'603'
p40
F0.0
sS'748'
p41
F0.0
sS'194'
p42
F0.0
sS'707'
p43
F0.0
sS'191'
p44
F0.0
sS'64'
p45
F0.0
sS'65'
p46
F0.0
sS'174'
p47
F0.0
sS'86'
p48
F0.0
ssS'495'
p49
(dp50
S'216'
p51
F0.0
sS'217'
p52
F0.0
sS'214'
p53
F0.0
sS'210'
p54
F0.0
sS'211'
p55
F0.0
sS'1263'
p56
F0.0
sS'665'
p57
F0.0
sS'768'
p58
F0.0
sS'218'
p59
F0.0
sS'660'
p60
F0.0
ssS'496'
p61
(dp62
S'217'
p63
F0.0
sS'22'
p64
F0.0
sS'661'
p65
F0.0
sS'660'
p66
F0.0
sS'133'
p67
F0.0
sS'132'
p68
F0.0
sS'136'
p69
F0.0
sS'135'
p70
F0.0
sS'495'
p71
F0.0
sS'496'
p72
F0.0
ssS'497'
p73
(dp74
S'216'
p75
F0.0
sS'217'
p76
F0.0
sS'769'
p77
F0.0
sS'210'
p78
F0.0
sS'1303'
p79
F0.0
sS'763'
p80
F0.0
sS'665'
p81
F0.0
sS'765'
p82
F0.0
sS'164'
p83
F0.0
sS'176'
p84
F0.0
ssS'490'
p85
(dp86
S'1128'
p87
F0.0
sS'151'
p88
F0.0
sS'273'
p89
F0.0
sS'150'
p90
F0.0
sS'952'
p91
F0.0
sS'455'
p92
F0.0
sS'333'
p93
F0.0
sS'258'
p94
F0.0
sS'109'
p95
F0.0
sS'137'
p96
F0.0
ssS'491'
p97
(dp98
S'319'
p99
F0.0
sS'696'
p100
F0.0
sS'23'
p101
F0.0
sS'45'
p102
F0.0
sS'190'
p103
F0.0
sS'258'
p104
F0.0
sS'273'
p105
F0.0
sS'236'
p106
F0.0
sS'237'
p107
F0.0
sS'493'
p108
F0.0
ssS'492'
p109
(dp110
S'153'
p111
F0.0
sS'318'
p112
F0.0
sS'212'
p113
F0.0
sS'1147'
p114
F0.0
sS'1121'
p115
F0.0
sS'242'
p116
F0.0
sS'193'
p117
F0.0
sS'521'
p118
F0.0
sS'134'
p119
F0.0
sS'199'
p120
F0.0
ssS'493'
p121
(dp122
S'24'
p123
F0.0
sS'693'
p124
F0.0
sS'22'
p125
F0.0
sS'210'
p126
F0.0
sS'762'
p127
F0.0
sS'763'
p128
F0.0
sS'127'
p129
F0.0
sS'288'
p130
F0.0
sS'405'
p131
F0.0
sS'134'
p132
F0.0
ssS'429'
p133
(dp134
S'591'
p135
F0.0
sS'737'
p136
F0.0
sS'710'
p137
F0.0
sS'340'
p138
F0.0
sS'290'
p139
F0.0
sS'298'
p140
F0.0
sS'507'
p141
F0.0
sS'293'
p142
F0.0
sS'816'
p143
F0.0
sS'291'
p144
F0.0
ssS'525'
p145
(dp146
S'151'
p147
F0.0
sS'742'
p148
F0.0
sS'595'
p149
F0.0
sS'597'
p150
F0.0
sS'596'
p151
F0.0
sS'762'
p152
F0.0
sS'332'
p153
F0.0
sS'322'
p154
F0.0
sS'111'
p155
F0.0
sS'276'
p156
F0.0
ssS'407'
p157
(dp158
S'216'
p159
F0.0
sS'217'
p160
F0.0
sS'214'
p161
F0.0
sS'215'
p162
F0.0
sS'210'
p163
F0.0
sS'211'
p164
F0.0
sS'1263'
p165
F0.0
sS'218'
p166
F0.0
sS'660'
p167
F0.0
sS'91'
p168
F0.0
ssS'406'
p169
(dp170
S'591'
p171
F0.0
sS'199'
p172
F0.0
sS'198'
p173
F0.0
sS'713'
p174
F0.0
sS'715'
p175
F0.0
sS'1065'
p176
F0.0
sS'712'
p177
F0.0
sS'663'
p178
F0.0
sS'294'
p179
F0.0
sS'813'
p180
F0.0
ssS'405'
p181
(dp182
S'964'
p183
F0.0
sS'668'
p184
F0.0
sS'1261'
p185
F0.0
sS'1260'
p186
F0.0
sS'347'
p187
F0.0
sS'341'
p188
F0.0
sS'1250'
p189
F0.0
sS'810'
p190
F0.0
sS'812'
p191
F0.0
sS'816'
p192
F0.0
ssS'404'
p193
(dp194
S'339'
p195
F0.0
sS'748'
p196
F0.0
sS'310'
p197
F0.0
sS'331'
p198
F0.0
sS'333'
p199
F0.0
sS'332'
p200
F0.0
sS'270'
p201
F0.0
sS'258'
p202
F0.0
sS'259'
p203
F0.0
sS'66'
p204
F0.0
ssS'403'
p205
(dp206
S'151'
p207
F0.0
sS'597'
p208
F0.0
sS'748'
p209
F0.0
sS'760'
p210
F0.0
sS'864'
p211
F0.0
sS'50'
p212
F0.0
sS'117'
p213
F0.0
sS'274'
p214
F0.0
sS'276'
p215
F0.0
sS'235'
p216
F0.0
ssS'402'
p217
(dp218
S'151'
p219
F0.0
sS'591'
p220
F0.0
sS'748'
p221
F0.0
sS'628'
p222
F0.0
sS'455'
p223
F0.0
sS'764'
p224
F0.0
sS'50'
p225
F0.0
sS'258'
p226
F0.0
sS'273'
p227
F0.0
sS'276'
p228
F0.0
ssS'401'
p229
(dp230
S'216'
p231
F0.0
sS'210'
p232
F0.0
sS'211'
p233
F0.0
sS'762'
p234
F0.0
sS'663'
p235
F0.0
sS'661'
p236
F0.0
sS'133'
p237
F0.0
sS'137'
p238
F0.0
sS'499'
p239
F0.0
sS'135'
p240
F0.0
ssS'400'
p241
(dp242
S'690'
p243
F0.0
sS'323'
p244
F0.0
sS'748'
p245
F0.0
sS'749'
p246
F0.0
sS'332'
p247
F0.0
sS'313'
p248
F0.0
sS'258'
p249
F0.0
sS'259'
p250
F0.0
sS'288'
p251
F0.0
sS'321'
p252
F0.0
ssS'548'
p253
(dp254
S'690'
p255
F0.0
sS'696'
p256
F0.0
sS'23'
p257
F0.0
sS'762'
p258
F0.0
sS'760'
p259
F0.0
sS'1073'
p260
F0.0
sS'218'
p261
F0.0
sS'1'
p262
F0.0
sS'300'
p263
F0.0
sS'127'
p264
F0.0
ssS'549'
p265
(dp266
S'151'
p267
F0.0
sS'24'
p268
F0.0
sS'620'
p269
F0.0
sS'748'
p270
F0.0
sg262
F0.0
sS'288'
p271
F0.0
sS'258'
p272
F0.0
sS'252'
p273
F0.0
sS'237'
p274
F0.0
sS'118'
p275
F0.0
ssS'409'
p276
(dp277
S'216'
p278
F0.0
sS'214'
p279
F0.0
sS'213'
p280
F0.0
sS'210'
p281
F0.0
sS'211'
p282
F0.0
sS'664'
p283
F0.0
sS'663'
p284
F0.0
sS'661'
p285
F0.0
sS'133'
p286
F0.0
sS'498'
p287
F0.0
ssS'408'
p288
(dp289
S'319'
p290
F0.0
sS'288'
p291
F0.0
sS'748'
p292
F0.0
sS'312'
p293
F0.0
sS'310'
p294
F0.0
sS'315'
p295
F0.0
sS'270'
p296
F0.0
sS'271'
p297
F0.0
sS'258'
p298
F0.0
sS'313'
p299
F0.0
ssS'537'
p300
(dp301
S'718'
p302
F0.0
sS'715'
p303
F0.0
sS'714'
p304
F0.0
sS'1267'
p305
F0.0
sS'345'
p306
F0.0
sS'346'
p307
F0.0
sS'347'
p308
F0.0
sS'340'
p309
F0.0
sS'343'
p310
F0.0
sS'349'
p311
F0.0
ssS'425'
p312
(dp313
S'24'
p314
F0.0
sS'217'
p315
F0.0
sS'690'
p316
F0.0
sS'27'
p317
F0.0
sS'1222'
p318
F0.0
sS'210'
p319
F0.0
sS'218'
p320
F0.0
sS'219'
p321
F0.0
sg262
F0.0
sS'491'
p322
F0.0
ssS'424'
p323
(dp324
S'740'
p325
F0.0
sS'151'
p326
F0.0
sS'989'
p327
F0.0
sS'882'
p328
F0.0
sS'310'
p329
F0.0
sS'969'
p330
F0.0
sS'1346'
p331
F0.0
sS'115'
p332
F0.0
sS'258'
p333
F0.0
sS'1084'
p334
F0.0
ssS'379'
p335
(dp336
S'216'
p337
F0.0
sS'210'
p338
F0.0
sS'211'
p339
F0.0
sS'663'
p340
F0.0
sS'219'
p341
F0.0
sS'133'
p342
F0.0
sS'131'
p343
F0.0
sS'137'
p344
F0.0
sS'135'
p345
F0.0
sS'227'
p346
F0.0
ssS'378'
p347
(dp348
S'591'
p349
F0.0
sS'597'
p350
F0.0
sS'1061'
p351
F0.0
sS'716'
p352
F0.0
sS'715'
p353
F0.0
sS'298'
p354
F0.0
sS'294'
p355
F0.0
sS'295'
p356
F0.0
sS'292'
p357
F0.0
sS'1063'
p358
F0.0
ssS'535'
p359
(dp360
S'215'
p361
F0.0
sS'212'
p362
F0.0
sS'213'
p363
F0.0
sS'210'
p364
F0.0
sS'211'
p365
F0.0
sS'1149'
p366
F0.0
sS'955'
p367
F0.0
sS'662'
p368
F0.0
sS'133'
p369
F0.0
sS'132'
p370
F0.0
ssS'417'
p371
(dp372
S'715'
p373
F0.0
sS'713'
p374
F0.0
sS'710'
p375
F0.0
sS'818'
p376
F0.0
sS'340'
p377
F0.0
sS'298'
p378
F0.0
sS'343'
p379
F0.0
sS'810'
p380
F0.0
sS'294'
p381
F0.0
sS'815'
p382
F0.0
ssS'410'
p383
(dp384
S'882'
p385
F0.0
sS'690'
p386
F0.0
sS'886'
p387
F0.0
sS'748'
p388
F0.0
sS'312'
p389
F0.0
sS'311'
p390
F0.0
sS'316'
p391
F0.0
sS'315'
p392
F0.0
sS'313'
p393
F0.0
sS'258'
p394
F0.0
ssS'411'
p395
(dp396
S'318'
p397
F0.0
sS'709'
p398
F0.0
sS'210'
p399
F0.0
sS'195'
p400
F0.0
sS'451'
p401
F0.0
sS'196'
p402
F0.0
sS'50'
p403
F0.0
sS'258'
p404
F0.0
sS'89'
p405
F0.0
sS'238'
p406
F0.0
ssS'531'
p407
(dp408
S'892'
p409
F0.0
sS'338'
p410
F0.0
sS'748'
p411
F0.0
sS'312'
p412
F0.0
sS'311'
p413
F0.0
sS'690'
p414
F0.0
sS'332'
p415
F0.0
sS'313'
p416
F0.0
sS'259'
p417
F0.0
sS'895'
p418
F0.0
ssS'536'
p419
(dp420
S'217'
p421
F0.0
sS'214'
p422
F0.0
sS'215'
p423
F0.0
sS'213'
p424
F0.0
sS'210'
p425
F0.0
sS'662'
p426
F0.0
sS'133'
p427
F0.0
sS'132'
p428
F0.0
sS'498'
p429
F0.0
sS'136'
p430
F0.0
ssS'418'
p431
(dp432
S'750'
p433
F0.0
sS'1313'
p434
F0.0
sS'895'
p435
F0.0
sS'313'
p436
F0.0
sS'301'
p437
F0.0
sS'302'
p438
F0.0
sS'304'
p439
F0.0
sS'315'
p440
F0.0
sS'300'
p441
F0.0
sS'346'
p442
F0.0
ssS'419'
p443
(dp444
S'604'
p445
F0.0
sS'212'
p446
F0.0
sS'705'
p447
F0.0
sS'197'
p448
F0.0
sS'191'
p449
F0.0
sS'89'
p450
F0.0
sS'275'
p451
F0.0
sS'134'
p452
F0.0
sS'494'
p453
F0.0
sS'69'
p454
F0.0
ssS'377'
p455
(dp456
S'338'
p457
F0.0
sS'748'
p458
F0.0
sS'194'
p459
F0.0
sS'316'
p460
F0.0
sS'219'
p461
F0.0
sS'271'
p462
F0.0
sS'272'
p463
F0.0
sS'234'
p464
F0.0
sS'313'
p465
F0.0
sS'173'
p466
F0.0
ssS'538'
p467
(dp468
S'216'
p469
F0.0
sS'153'
p470
F0.0
sS'215'
p471
F0.0
sS'199'
p472
F0.0
sS'213'
p473
F0.0
sS'210'
p474
F0.0
sS'211'
p475
F0.0
sS'195'
p476
F0.0
sS'196'
p477
F0.0
sS'28'
p478
F0.0
ssS'393'
p479
(dp480
S'625'
p481
F0.0
sS'717'
p482
F0.0
sS'715'
p483
F0.0
sS'344'
p484
F0.0
sS'819'
p485
F0.0
sS'347'
p486
F0.0
sS'342'
p487
F0.0
sS'810'
p488
F0.0
sS'812'
p489
F0.0
sS'349'
p490
F0.0
ssS'392'
p491
(dp492
S'1142'
p493
F0.0
sS'1143'
p494
F0.0
sS'23'
p495
F0.0
sS'663'
p496
F0.0
sS'289'
p497
F0.0
sS'134'
p498
F0.0
sS'495'
p499
F0.0
sS'491'
p500
F0.0
sS'492'
p501
F0.0
sS'493'
p502
F0.0
ssS'391'
p503
(dp504
S'215'
p505
F0.0
sS'213'
p506
F0.0
sS'134'
p507
F0.0
sS'661'
p508
F0.0
sS'133'
p509
F0.0
sS'132'
p510
F0.0
sS'131'
p511
F0.0
sS'498'
p512
F0.0
sS'264'
p513
F0.0
sS'497'
p514
F0.0
ssS'390'
p515
(dp516
S'740'
p517
F0.0
sS'319'
p518
F0.0
sS'989'
p519
F0.0
sS'331'
p520
F0.0
sS'742'
p521
F0.0
sS'289'
p522
F0.0
sS'690'
p523
F0.0
sS'258'
p524
F0.0
sS'275'
p525
F0.0
sS'277'
p526
F0.0
ssS'397'
p527
(dp528
S'693'
p529
F0.0
sS'22'
p530
F0.0
sS'210'
p531
F0.0
sS'23'
p532
F0.0
sS'665'
p533
F0.0
sS'498'
p534
F0.0
sS'135'
p535
F0.0
sS'134'
p536
F0.0
sS'95'
p537
F0.0
sS'492'
p538
F0.0
ssS'396'
p539
(dp540
S'591'
p541
F0.0
sS'151'
p542
F0.0
sS'742'
p543
F0.0
sS'595'
p544
F0.0
sS'597'
p545
F0.0
sS'986'
p546
F0.0
sS'455'
p547
F0.0
sS'333'
p548
F0.0
sS'406'
p549
F0.0
sS'281'
p550
F0.0
ssS'395'
p551
(dp552
S'151'
p553
F0.0
sS'458'
p554
F0.0
sS'892'
p555
F0.0
sS'215'
p556
F0.0
sS'338'
p557
F0.0
sS'210'
p558
F0.0
sS'596'
p559
F0.0
sS'313'
p560
F0.0
sS'196'
p561
F0.0
sS'172'
p562
F0.0
ssS'394'
p563
(dp564
S'216'
p565
F0.0
sS'217'
p566
F0.0
sS'210'
p567
F0.0
sS'763'
p568
F0.0
sS'665'
p569
F0.0
sS'218'
p570
F0.0
sS'132'
p571
F0.0
sS'90'
p572
F0.0
sS'176'
p573
F0.0
sS'496'
p574
F0.0
ssS'399'
p575
(dp576
S'622'
p577
F0.0
sS'768'
p578
F0.0
sS'215'
p579
F0.0
sS'210'
p580
F0.0
sS'763'
p581
F0.0
sS'760'
p582
F0.0
sS'214'
p583
F0.0
sS'218'
p584
F0.0
sS'289'
p585
F0.0
sS'264'
p586
F0.0
ssS'398'
p587
(dp588
S'216'
p589
F0.0
sS'211'
p590
F0.0
sS'663'
p591
F0.0
sS'662'
p592
F0.0
sS'661'
p593
F0.0
sS'133'
p594
F0.0
sS'132'
p595
F0.0
sS'498'
p596
F0.0
sS'135'
p597
F0.0
sS'134'
p598
F0.0
ssS'414'
p599
(dp600
S'690'
p601
F0.0
sS'886'
p602
F0.0
sS'288'
p603
F0.0
sS'748'
p604
F0.0
sS'310'
p605
F0.0
sS'346'
p606
F0.0
sS'270'
p607
F0.0
sS'313'
p608
F0.0
sS'258'
p609
F0.0
sS'340'
p610
F0.0
ssS'415'
p611
(dp612
S'322'
p613
F0.0
sS'154'
p614
F0.0
sS'748'
p615
F0.0
sS'180'
p616
F0.0
sS'1524'
p617
F0.0
sS'323'
p618
F0.0
sS'258'
p619
F0.0
sS'136'
p620
F0.0
sS'195'
p621
F0.0
sS'174'
p622
F0.0
ssS'416'
p623
(dp624
S'717'
p625
F0.0
sS'713'
p626
F0.0
sS'712'
p627
F0.0
sS'819'
p628
F0.0
sS'346'
p629
F0.0
sS'347'
p630
F0.0
sS'918'
p631
F0.0
sS'812'
p632
F0.0
sS'348'
p633
F0.0
sS'815'
p634
F0.0
ssS'524'
p635
(dp636
S'216'
p637
F0.0
sS'1268'
p638
F0.0
sS'212'
p639
F0.0
sS'213'
p640
F0.0
sS'210'
p641
F0.0
sS'211'
p642
F0.0
sS'663'
p643
F0.0
sS'955'
p644
F0.0
sS'661'
p645
F0.0
sS'660'
p646
F0.0
ssS'428'
p647
(dp648
S'988'
p649
F0.0
sS'338'
p650
F0.0
sS'313'
p651
F0.0
sS'312'
p652
F0.0
sS'310'
p653
F0.0
sS'331'
p654
F0.0
sS'316'
p655
F0.0
sS'315'
p656
F0.0
sS'332'
p657
F0.0
sS'322'
p658
F0.0
ssS'526'
p659
(dp660
S'591'
p661
F0.0
sS'150'
p662
F0.0
sS'742'
p663
F0.0
sS'1084'
p664
F0.0
sS'886'
p665
F0.0
sS'748'
p666
F0.0
sS'312'
p667
F0.0
sS'331'
p668
F0.0
sS'315'
p669
F0.0
sS'332'
p670
F0.0
ssS'527'
p671
(dp672
S'214'
p673
F0.0
sS'213'
p674
F0.0
sS'210'
p675
F0.0
sS'211'
p676
F0.0
sS'1149'
p677
F0.0
sS'661'
p678
F0.0
sS'498'
p679
F0.0
sS'499'
p680
F0.0
sS'135'
p681
F0.0
sS'134'
p682
F0.0
ssS'520'
p683
(dp684
S'1051'
p685
F0.0
sS'690'
p686
F0.0
sS'898'
p687
F0.0
sS'311'
p688
F0.0
sS'310'
p689
F0.0
sS'315'
p690
F0.0
sS'871'
p691
F0.0
sS'289'
p692
F0.0
sS'274'
p693
F0.0
sS'269'
p694
F0.0
ssS'521'
p695
(dp696
S'216'
p697
F0.0
sS'25'
p698
F0.0
sS'215'
p699
F0.0
sS'22'
p700
F0.0
sS'210'
p701
F0.0
sS'763'
p702
F0.0
sS'132'
p703
F0.0
sS'135'
p704
F0.0
sS'226'
p705
F0.0
sS'496'
p706
F0.0
ssS'522'
p707
(dp708
S'318'
p709
F0.0
sS'135'
p710
F0.0
sS'48'
p711
F0.0
sS'23'
p712
F0.0
sS'192'
p713
F0.0
sS'133'
p714
F0.0
sS'179'
p715
F0.0
sS'134'
p716
F0.0
sS'173'
p717
F0.0
sS'492'
p718
F0.0
ssS'523'
p719
(dp720
S'25'
p721
F0.0
sS'213'
p722
F0.0
sS'210'
p723
F0.0
sS'211'
p724
F0.0
sS'1195'
p725
F0.0
sS'663'
p726
F0.0
sS'662'
p727
F0.0
sS'289'
p728
F0.0
sS'8'
p729
F0.0
sS'694'
p730
F0.0
ssS'421'
p731
(dp732
S'213'
p733
F0.0
sS'603'
p734
F0.0
sS'156'
p735
F0.0
sS'194'
p736
F0.0
sS'197'
p737
F0.0
sS'331'
p738
F0.0
sS'333'
p739
F0.0
sS'219'
p740
F0.0
sS'82'
p741
F0.0
sS'269'
p742
F0.0
ssS'420'
p743
(dp744
S'319'
p745
F0.0
sS'603'
p746
F0.0
sS'331'
p747
F0.0
sS'190'
p748
F0.0
sS'1347'
p749
F0.0
sS'270'
p750
F0.0
sS'116'
p751
F0.0
sS'137'
p752
F0.0
sS'275'
p753
F0.0
sS'179'
p754
F0.0
ssS'423'
p755
(dp756
S'591'
p757
F0.0
sS'620'
p758
F0.0
sS'744'
p759
F0.0
sS'748'
p760
F0.0
sS'310'
p761
F0.0
sS'316'
p762
F0.0
sS'1265'
p763
F0.0
sS'313'
p764
F0.0
sS'258'
p765
F0.0
sS'750'
p766
F0.0
ssS'422'
p767
(dp768
S'217'
p769
F0.0
sS'760'
p770
F0.0
sS'218'
p771
F0.0
sS'219'
p772
F0.0
sS'288'
p773
F0.0
sS'137'
p774
F0.0
sS'326'
p775
F0.0
sS'665'
p776
F0.0
sS'287'
p777
F0.0
sS'286'
p778
F0.0
ssS'528'
p779
(dp780
S'203'
p781
F0.0
sS'213'
p782
F0.0
sS'210'
p783
F0.0
sS'748'
p784
F0.0
sS'194'
p785
F0.0
sS'310'
p786
F0.0
sS'193'
p787
F0.0
sS'393'
p788
F0.0
sS'258'
p789
F0.0
sS'238'
p790
F0.0
ssS'529'
p791
(dp792
S'319'
p793
F0.0
sS'880'
p794
F0.0
sS'886'
p795
F0.0
sS'749'
p796
F0.0
sS'310'
p797
F0.0
sS'331'
p798
F0.0
sS'984'
p799
F0.0
sS'332'
p800
F0.0
sS'270'
p801
F0.0
sS'271'
p802
F0.0
ssS'427'
p803
(dp804
S'319'
p805
F0.0
sS'989'
p806
F0.0
sS'334'
p807
F0.0
sS'874'
p808
F0.0
sS'331'
p809
F0.0
sS'881'
p810
F0.0
sS'1265'
p811
F0.0
sS'332'
p812
F0.0
sS'322'
p813
F0.0
sS'258'
p814
F0.0
ssS'426'
p815
(dp816
S'211'
p817
F0.0
sS'663'
p818
F0.0
sS'661'
p819
F0.0
sS'133'
p820
F0.0
sS'132'
p821
F0.0
sS'136'
p822
F0.0
sS'135'
p823
F0.0
sS'134'
p824
F0.0
sS'494'
p825
F0.0
sS'496'
p826
F0.0
ssS'449'
p827
(dp828
S'1142'
p829
F0.0
sS'459'
p830
F0.0
sS'742'
p831
F0.0
sS'212'
p832
F0.0
sS'558'
p833
F0.0
sS'748'
p834
F0.0
sS'983'
p835
F0.0
sS'337'
p836
F0.0
sS'310'
p837
F0.0
sS'640'
p838
F0.0
ssS'448'
p839
(dp840
S'319'
p841
F0.0
sS'887'
p842
F0.0
sS'338'
p843
F0.0
sS'884'
p844
F0.0
sS'312'
p845
F0.0
sS'1062'
p846
F0.0
sS'316'
p847
F0.0
sS'333'
p848
F0.0
sS'270'
p849
F0.0
sS'271'
p850
F0.0
ssS'412'
p851
(dp852
S'150'
p853
F0.0
sS'214'
p854
F0.0
sS'318'
p855
F0.0
sS'154'
p856
F0.0
sS'211'
p857
F0.0
sS'195'
p858
F0.0
sS'193'
p859
F0.0
sS'114'
p860
F0.0
sS'117'
p861
F0.0
sS'64'
p862
F0.0
ssS'443'
p863
(dp864
S'323'
p865
F0.0
sS'748'
p866
F0.0
sS'333'
p867
F0.0
sS'271'
p868
F0.0
sS'258'
p869
F0.0
sS'340'
p870
F0.0
sS'327'
p871
F0.0
sS'343'
p872
F0.0
sS'313'
p873
F0.0
sS'175'
p874
F0.0
ssS'442'
p875
(dp876
S'217'
p877
F0.0
sS'26'
p878
F0.0
sS'769'
p879
F0.0
sS'210'
p880
F0.0
sS'665'
p881
F0.0
sS'218'
p882
F0.0
sS'219'
p883
F0.0
sS'164'
p884
F0.0
sS'90'
p885
F0.0
sS'871'
p886
F0.0
ssS'441'
p887
(dp888
S'25'
p889
F0.0
sS'751'
p890
F0.0
sS'15'
p891
F0.0
sS'313'
p892
F0.0
sS'300'
p893
F0.0
sg262
F0.0
sS'121'
p894
F0.0
sS'405'
p895
F0.0
sS'7'
p896
F0.0
sS'282'
p897
F0.0
ssS'440'
p898
(dp899
S'883'
p900
F0.0
sS'319'
p901
F0.0
sS'886'
p902
F0.0
sS'313'
p903
F0.0
sS'312'
p904
F0.0
sS'310'
p905
F0.0
sS'988'
p906
F0.0
sS'1265'
p907
F0.0
sS'1194'
p908
F0.0
sS'213'
p909
F0.0
ssS'447'
p910
(dp911
S'1142'
p912
F0.0
sS'24'
p913
F0.0
sS'211'
p914
F0.0
sS'762'
p915
F0.0
sS'760'
p916
F0.0
sS'218'
p917
F0.0
sS'133'
p918
F0.0
sS'498'
p919
F0.0
sS'135'
p920
F0.0
sS'227'
p921
F0.0
ssS'446'
p922
(dp923
S'883'
p924
F0.0
sS'880'
p925
F0.0
sS'887'
p926
F0.0
sS'338'
p927
F0.0
sS'748'
p928
F0.0
sS'334'
p929
F0.0
sS'311'
p930
F0.0
sS'888'
p931
F0.0
sS'332'
p932
F0.0
sS'270'
p933
F0.0
ssS'445'
p934
(dp935
S'1143'
p936
F0.0
sS'23'
p937
F0.0
sS'762'
p938
F0.0
sS'763'
p939
F0.0
sS'28'
p940
F0.0
sS'818'
p941
F0.0
sS'288'
p942
F0.0
sS'346'
p943
F0.0
sS'340'
p944
F0.0
sS'544'
p945
F0.0
ssS'444'
p946
(dp947
S'748'
p948
F0.0
sS'313'
p949
F0.0
sS'272'
p950
F0.0
sS'1483'
p951
F0.0
sS'271'
p952
F0.0
sS'258'
p953
F0.0
sS'275'
p954
F0.0
sS'9'
p955
F0.0
sS'269'
p956
F0.0
sS'251'
p957
F0.0
ssS'380'
p958
(dp959
S'217'
p960
F0.0
sS'215'
p961
F0.0
sS'199'
p962
F0.0
sS'213'
p963
F0.0
sS'211'
p964
F0.0
sS'665'
p965
F0.0
sS'664'
p966
F0.0
sS'663'
p967
F0.0
sS'132'
p968
F0.0
sS'498'
p969
F0.0
ssS'381'
p970
(dp971
S'216'
p972
F0.0
sS'217'
p973
F0.0
sS'214'
p974
F0.0
sS'212'
p975
F0.0
sS'660'
p976
F0.0
sS'133'
p977
F0.0
sS'132'
p978
F0.0
sS'498'
p979
F0.0
sS'135'
p980
F0.0
sS'134'
p981
F0.0
ssS'382'
p982
(dp983
S'1142'
p984
F0.0
sS'150'
p985
F0.0
sS'1268'
p986
F0.0
sS'334'
p987
F0.0
sS'197'
p988
F0.0
sS'1229'
p989
F0.0
sS'332'
p990
F0.0
sS'258'
p991
F0.0
sS'135'
p992
F0.0
sS'252'
p993
F0.0
ssS'383'
p994
(dp995
S'604'
p996
F0.0
sS'319'
p997
F0.0
sS'213'
p998
F0.0
sS'603'
p999
F0.0
sS'313'
p1000
F0.0
sS'197'
p1001
F0.0
sS'663'
p1002
F0.0
sS'316'
p1003
F0.0
sS'315'
p1004
F0.0
sS'58'
p1005
F0.0
ssS'384'
p1006
(dp1007
S'748'
p1008
F0.0
sS'989'
p1009
F0.0
sS'878'
p1010
F0.0
sS'879'
p1011
F0.0
sS'313'
p1012
F0.0
sS'316'
p1013
F0.0
sS'333'
p1014
F0.0
sS'289'
p1015
F0.0
sS'271'
p1016
F0.0
sS'258'
p1017
F0.0
ssS'385'
p1018
(dp1019
S'216'
p1020
F0.0
sS'1143'
p1021
F0.0
sS'215'
p1022
F0.0
sS'693'
p1023
F0.0
sS'210'
p1024
F0.0
sS'211'
p1025
F0.0
sS'664'
p1026
F0.0
sS'663'
p1027
F0.0
sS'767'
p1028
F0.0
sS'1462'
p1029
F0.0
ssS'386'
p1030
(dp1031
S'24'
p1032
F0.0
sS'833'
p1033
F0.0
sS'597'
p1034
F0.0
sS'982'
p1035
F0.0
sS'455'
p1036
F0.0
sS'323'
p1037
F0.0
sS'117'
p1038
F0.0
sS'273'
p1039
F0.0
sS'405'
p1040
F0.0
sS'118'
p1041
F0.0
ssS'387'
p1042
(dp1043
S'1143'
p1044
F0.0
sS'768'
p1045
F0.0
sS'215'
p1046
F0.0
sS'210'
p1047
F0.0
sS'217'
p1048
F0.0
sS'665'
p1049
F0.0
sS'663'
p1050
F0.0
sS'214'
p1051
F0.0
sS'218'
p1052
F0.0
sS'219'
p1053
F0.0
ssS'388'
p1054
(dp1055
S'591'
p1056
F0.0
sS'569'
p1057
F0.0
sS'742'
p1058
F0.0
sS'769'
p1059
F0.0
sS'559'
p1060
F0.0
sS'313'
p1061
F0.0
sS'310'
p1062
F0.0
sS'333'
p1063
F0.0
sS'219'
p1064
F0.0
sS'117'
p1065
F0.0
ssS'389'
p1066
(dp1067
S'216'
p1068
F0.0
sS'217'
p1069
F0.0
sS'1147'
p1070
F0.0
sS'210'
p1071
F0.0
sS'211'
p1072
F0.0
sS'763'
p1073
F0.0
sS'664'
p1074
F0.0
sS'663'
p1075
F0.0
sS'662'
p1076
F0.0
sS'661'
p1077
F0.0
ssS'532'
p1078
(dp1079
S'216'
p1080
F0.0
sS'769'
p1081
F0.0
sS'210'
p1082
F0.0
sS'763'
p1083
F0.0
sS'218'
p1084
F0.0
sS'660'
p1085
F0.0
sS'215'
p1086
F0.0
sS'132'
p1087
F0.0
sS'318'
p1088
F0.0
sS'915'
p1089
F0.0
ssS'519'
p1090
(dp1091
S'336'
p1092
F0.0
sS'339'
p1093
F0.0
sS'748'
p1094
F0.0
sS'1062'
p1095
F0.0
sS'330'
p1096
F0.0
sS'333'
p1097
F0.0
sS'332'
p1098
F0.0
sS'313'
p1099
F0.0
sS'259'
p1100
F0.0
sS'887'
p1101
F0.0
ssS'518'
p1102
(dp1103
S'458'
p1104
F0.0
sS'151'
p1105
F0.0
sS'742'
p1106
F0.0
sS'595'
p1107
F0.0
sS'763'
p1108
F0.0
sS'628'
p1109
F0.0
sS'864'
p1110
F0.0
sS'117'
p1111
F0.0
sS'273'
p1112
F0.0
sS'920'
p1113
F0.0
ssS'533'
p1114
(dp1115
S'216'
p1116
F0.0
sS'1142'
p1117
F0.0
sS'215'
p1118
F0.0
sS'1147'
p1119
F0.0
sS'210'
p1120
F0.0
sS'211'
p1121
F0.0
sS'663'
p1122
F0.0
sS'218'
p1123
F0.0
sS'660'
p1124
F0.0
sS'133'
p1125
F0.0
ssS'539'
p1126
(dp1127
S'153'
p1128
F0.0
sS'215'
p1129
F0.0
sS'155'
p1130
F0.0
sS'603'
p1131
F0.0
sS'197'
p1132
F0.0
sS'319'
p1133
F0.0
sS'661'
p1134
F0.0
sS'660'
p1135
F0.0
sS'133'
p1136
F0.0
sS'127'
p1137
F0.0
ssS'438'
p1138
(dp1139
S'21'
p1140
F0.0
sS'1028'
p1141
F0.0
sS'284'
p1142
F0.0
sS'252'
p1143
F0.0
sS'181'
p1144
F0.0
sS'281'
p1145
F0.0
sS'269'
p1146
F0.0
sS'237'
p1147
F0.0
sS'257'
p1148
F0.0
sS'255'
p1149
F0.0
ssS'439'
p1150
(dp1151
S'591'
p1152
F0.0
sg896
F0.0
sS'1328'
p1153
F0.0
sS'288'
p1154
F0.0
sS'405'
p1155
F0.0
sS'273'
p1156
F0.0
sS'276'
p1157
F0.0
sS'100'
p1158
F0.0
sS'237'
p1159
F0.0
sS'257'
p1160
F0.0
ssS'436'
p1161
(dp1162
S'216'
p1163
F0.0
sS'217'
p1164
F0.0
sS'215'
p1165
F0.0
sS'762'
p1166
F0.0
sS'763'
p1167
F0.0
sS'761'
p1168
F0.0
sS'218'
p1169
F0.0
sS'219'
p1170
F0.0
sS'133'
p1171
F0.0
sS'132'
p1172
F0.0
ssS'510'
p1173
(dp1174
S'881'
p1175
F0.0
sS'288'
p1176
F0.0
sS'313'
p1177
F0.0
sS'330'
p1178
F0.0
sS'333'
p1179
F0.0
sS'457'
p1180
F0.0
sS'322'
p1181
F0.0
sS'748'
p1182
F0.0
sS'258'
p1183
F0.0
sS'259'
p1184
F0.0
ssS'513'
p1185
(dp1186
S'210'
p1187
F0.0
sS'763'
p1188
F0.0
sS'50'
p1189
F0.0
sS'118'
p1190
F0.0
sS'323'
p1191
F0.0
sS'117'
p1192
F0.0
sS'405'
p1193
F0.0
sS'252'
p1194
F0.0
sS'250'
p1195
F0.0
sS'257'
p1196
F0.0
ssS'435'
p1197
(dp1198
S'1069'
p1199
F0.0
sS'717'
p1200
F0.0
sS'715'
p1201
F0.0
sS'299'
p1202
F0.0
sS'713'
p1203
F0.0
sS'710'
p1204
F0.0
sS'818'
p1205
F0.0
sS'1061'
p1206
F0.0
sS'298'
p1207
F0.0
sS'343'
p1208
F0.0
ssS'432'
p1209
(dp1210
S'151'
p1211
F0.0
sS'150'
p1212
F0.0
sS'742'
p1213
F0.0
sS'620'
p1214
F0.0
sS'313'
p1215
F0.0
sS'763'
p1216
F0.0
sS'628'
p1217
F0.0
sS'315'
p1218
F0.0
sS'276'
p1219
F0.0
sS'257'
p1220
F0.0
ssS'433'
p1221
(dp1222
S'748'
p1223
F0.0
sS'194'
p1224
F0.0
sS'333'
p1225
F0.0
sS'457'
p1226
F0.0
sS'60'
p1227
F0.0
sS'919'
p1228
F0.0
sS'276'
p1229
F0.0
sS'137'
p1230
F0.0
sS'174'
p1231
F0.0
sS'173'
p1232
F0.0
ssS'430'
p1233
(dp1234
S'151'
p1235
F0.0
sS'318'
p1236
F0.0
sS'744'
p1237
F0.0
sS'748'
p1238
F0.0
sS'628'
p1239
F0.0
sS'258'
p1240
F0.0
sS'1347'
p1241
F0.0
sS'117'
p1242
F0.0
sS'273'
p1243
F0.0
sS'276'
p1244
F0.0
ssS'516'
p1245
(dp1246
S'902'
p1247
F0.0
sS'214'
p1248
F0.0
sS'310'
p1249
F0.0
sS'199'
p1250
F0.0
sS'204'
p1251
F0.0
sS'194'
p1252
F0.0
sS'628'
p1253
F0.0
sS'191'
p1254
F0.0
sS'50'
p1255
F0.0
sS'660'
p1256
F0.0
ssS'458'
p1257
(dp1258
S'25'
p1259
F0.0
sS'696'
p1260
F0.0
sS'21'
p1261
F0.0
sS'762'
p1262
F0.0
sS'1261'
p1263
F0.0
sS'663'
p1264
F0.0
sS'137'
p1265
F0.0
sS'499'
p1266
F0.0
sS'134'
p1267
F0.0
sS'496'
p1268
F0.0
ssS'459'
p1269
(dp1270
S'216'
p1271
F0.0
sS'25'
p1272
F0.0
sS'696'
p1273
F0.0
sS'22'
p1274
F0.0
sS'127'
p1275
F0.0
sS'289'
p1276
F0.0
sS'405'
p1277
F0.0
sS'546'
p1278
F0.0
sS'134'
p1279
F0.0
sg729
F0.0
ssS'450'
p1280
(dp1281
S'1140'
p1282
F0.0
sS'717'
p1283
F0.0
sS'716'
p1284
F0.0
sS'715'
p1285
F0.0
sS'815'
p1286
F0.0
sS'345'
p1287
F0.0
sS'347'
p1288
F0.0
sS'340'
p1289
F0.0
sS'504'
p1290
F0.0
sS'812'
p1291
F0.0
ssS'451'
p1292
(dp1293
S'995'
p1294
F0.0
sS'690'
p1295
F0.0
sS'678'
p1296
F0.0
sS'990'
p1297
F0.0
sS'1265'
p1298
F0.0
sS'289'
p1299
F0.0
sS'288'
p1300
F0.0
sS'938'
p1301
F0.0
sS'937'
p1302
F0.0
sS'286'
p1303
F0.0
ssS'452'
p1304
(dp1305
S'216'
p1306
F0.0
sS'212'
p1307
F0.0
sS'213'
p1308
F0.0
sS'210'
p1309
F0.0
sS'211'
p1310
F0.0
sS'663'
p1311
F0.0
sS'661'
p1312
F0.0
sS'660'
p1313
F0.0
sS'132'
p1314
F0.0
sS'498'
p1315
F0.0
ssS'453'
p1316
(dp1317
S'24'
p1318
F0.0
sS'693'
p1319
F0.0
sS'214'
p1320
F0.0
sS'215'
p1321
F0.0
sS'210'
p1322
F0.0
sS'1145'
p1323
F0.0
sS'763'
p1324
F0.0
sS'132'
p1325
F0.0
sS'90'
p1326
F0.0
sS'496'
p1327
F0.0
ssS'454'
p1328
(dp1329
S'1269'
p1330
F0.0
sS'215'
p1331
F0.0
sS'210'
p1332
F0.0
sS'211'
p1333
F0.0
sS'661'
p1334
F0.0
sS'660'
p1335
F0.0
sS'133'
p1336
F0.0
sS'132'
p1337
F0.0
sS'131'
p1338
F0.0
sS'498'
p1339
F0.0
ssS'455'
p1340
(dp1341
S'217'
p1342
F0.0
sS'214'
p1343
F0.0
sS'135'
p1344
F0.0
sS'662'
p1345
F0.0
sS'1265'
p1346
F0.0
sS'660'
p1347
F0.0
sS'40'
p1348
F0.0
sS'126'
p1349
F0.0
sS'549'
p1350
F0.0
sS'213'
p1351
F0.0
ssS'456'
p1352
(dp1353
S'216'
p1354
F0.0
sS'217'
p1355
F0.0
sS'214'
p1356
F0.0
sS'1547'
p1357
F0.0
sS'210'
p1358
F0.0
sS'211'
p1359
F0.0
sS'1267'
p1360
F0.0
sS'955'
p1361
F0.0
sS'662'
p1362
F0.0
sS'1240'
p1363
F0.0
ssS'457'
p1364
(dp1365
S'216'
p1366
F0.0
sS'458'
p1367
F0.0
sS'1140'
p1368
F0.0
sS'769'
p1369
F0.0
sS'210'
p1370
F0.0
sS'664'
p1371
F0.0
sS'214'
p1372
F0.0
sS'218'
p1373
F0.0
sS'219'
p1374
F0.0
sS'133'
p1375
F0.0
ssS'413'
p1376
(dp1377
S'628'
p1378
F0.0
sS'333'
p1379
F0.0
sS'332'
p1380
F0.0
sS'270'
p1381
F0.0
sS'271'
p1382
F0.0
sS'258'
p1383
F0.0
sS'273'
p1384
F0.0
sS'275'
p1385
F0.0
sS'276'
p1386
F0.0
sS'100'
p1387
F0.0
ssS'542'
p1388
(dp1389
S'693'
p1390
F0.0
sS'214'
p1391
F0.0
sS'22'
p1392
F0.0
sS'210'
p1393
F0.0
sS'23'
p1394
F0.0
sS'763'
p1395
F0.0
sS'871'
p1396
F0.0
sS'132'
p1397
F0.0
sS'734'
p1398
F0.0
sS'496'
p1399
F0.0
ssS'543'
p1400
(dp1401
S'216'
p1402
F0.0
sS'214'
p1403
F0.0
sS'212'
p1404
F0.0
sS'210'
p1405
F0.0
sS'211'
p1406
F0.0
sS'1262'
p1407
F0.0
sS'664'
p1408
F0.0
sS'663'
p1409
F0.0
sS'218'
p1410
F0.0
sS'660'
p1411
F0.0
ssS'530'
p1412
(dp1413
S'1226'
p1414
F0.0
sS'214'
p1415
F0.0
sS'1300'
p1416
F0.0
sS'156'
p1417
F0.0
sS'195'
p1418
F0.0
sS'196'
p1419
F0.0
sS'191'
p1420
F0.0
sS'319'
p1421
F0.0
sS'333'
p1422
F0.0
sS'660'
p1423
F0.0
ssS'540'
p1424
(dp1425
S'591'
p1426
F0.0
sS'741'
p1427
F0.0
sS'742'
p1428
F0.0
sS'597'
p1429
F0.0
sS'150'
p1430
F0.0
sS'762'
p1431
F0.0
sS'310'
p1432
F0.0
sS'455'
p1433
F0.0
sS'276'
p1434
F0.0
sS'269'
p1435
F0.0
ssS'482'
p1436
(dp1437
S'988'
p1438
F0.0
sS'876'
p1439
F0.0
sS'748'
p1440
F0.0
sS'311'
p1441
F0.0
sS'881'
p1442
F0.0
sS'315'
p1443
F0.0
sS'289'
p1444
F0.0
sS'313'
p1445
F0.0
sS'258'
p1446
F0.0
sS'257'
p1447
F0.0
ssS'541'
p1448
(dp1449
S'459'
p1450
F0.0
sS'215'
p1451
F0.0
sS'1078'
p1452
F0.0
sS'210'
p1453
F0.0
sS'763'
p1454
F0.0
sS'1074'
p1455
F0.0
sS'699'
p1456
F0.0
sS'660'
p1457
F0.0
sS'769'
p1458
F0.0
sS'139'
p1459
F0.0
ssS'508'
p1460
(dp1461
S'216'
p1462
F0.0
sS'214'
p1463
F0.0
sS'215'
p1464
F0.0
sS'210'
p1465
F0.0
sS'211'
p1466
F0.0
sS'23'
p1467
F0.0
sS'218'
p1468
F0.0
sS'219'
p1469
F0.0
sS'132'
p1470
F0.0
sS'96'
p1471
F0.0
ssS'509'
p1472
(dp1473
S'892'
p1474
F0.0
sS'690'
p1475
F0.0
sS'338'
p1476
F0.0
sS'603'
p1477
F0.0
sS'705'
p1478
F0.0
sS'310'
p1479
F0.0
sS'319'
p1480
F0.0
sS'332'
p1481
F0.0
sS'271'
p1482
F0.0
sS'258'
p1483
F0.0
ssS'506'
p1484
(dp1485
S'216'
p1486
F0.0
sS'215'
p1487
F0.0
sS'210'
p1488
F0.0
sS'211'
p1489
F0.0
sS'762'
p1490
F0.0
sS'665'
p1491
F0.0
sS'761'
p1492
F0.0
sS'663'
p1493
F0.0
sS'662'
p1494
F0.0
sS'661'
p1495
F0.0
ssS'507'
p1496
(dp1497
S'319'
p1498
F0.0
sS'338'
p1499
F0.0
sS'597'
p1500
F0.0
sS'748'
p1501
F0.0
sS'334'
p1502
F0.0
sS'310'
p1503
F0.0
sS'316'
p1504
F0.0
sS'1089'
p1505
F0.0
sS'271'
p1506
F0.0
sS'117'
p1507
F0.0
ssS'504'
p1508
(dp1509
S'216'
p1510
F0.0
sS'214'
p1511
F0.0
sS'215'
p1512
F0.0
sS'212'
p1513
F0.0
sS'1147'
p1514
F0.0
sS'210'
p1515
F0.0
sS'211'
p1516
F0.0
sS'1263'
p1517
F0.0
sS'664'
p1518
F0.0
sS'218'
p1519
F0.0
ssS'505'
p1520
(dp1521
S'692'
p1522
F0.0
sS'22'
p1523
F0.0
sS'210'
p1524
F0.0
sS'660'
p1525
F0.0
sS'133'
p1526
F0.0
sS'132'
p1527
F0.0
sS'498'
p1528
F0.0
sS'495'
p1529
F0.0
sS'496'
p1530
F0.0
sS'491'
p1531
F0.0
ssS'502'
p1532
(dp1533
S'751'
p1534
F0.0
sS'338'
p1535
F0.0
sS'323'
p1536
F0.0
sS'313'
p1537
F0.0
sS'879'
p1538
F0.0
sS'333'
p1539
F0.0
sS'270'
p1540
F0.0
sS'271'
p1541
F0.0
sS'258'
p1542
F0.0
sS'259'
p1543
F0.0
ssS'503'
p1544
(dp1545
S'216'
p1546
F0.0
sS'213'
p1547
F0.0
sS'210'
p1548
F0.0
sS'211'
p1549
F0.0
sS'662'
p1550
F0.0
sS'133'
p1551
F0.0
sS'132'
p1552
F0.0
sS'130'
p1553
F0.0
sS'137'
p1554
F0.0
sS'134'
p1555
F0.0
ssS'500'
p1556
(dp1557
S'216'
p1558
F0.0
sS'217'
p1559
F0.0
sS'768'
p1560
F0.0
sS'215'
p1561
F0.0
sS'210'
p1562
F0.0
sS'211'
p1563
F0.0
sS'762'
p1564
F0.0
sS'665'
p1565
F0.0
sS'1195'
p1566
F0.0
sS'662'
p1567
F0.0
ssS'501'
p1568
(dp1569
S'151'
p1570
F0.0
sS'741'
p1571
F0.0
sS'1081'
p1572
F0.0
sS'150'
p1573
F0.0
sS'313'
p1574
F0.0
sS'628'
p1575
F0.0
sS'456'
p1576
F0.0
sS'117'
p1577
F0.0
sS'273'
p1578
F0.0
sS'248'
p1579
F0.0
ssS'469'
p1580
(dp1581
S'605'
p1582
F0.0
sS'153'
p1583
F0.0
sS'215'
p1584
F0.0
sS'199'
p1585
F0.0
sS'603'
p1586
F0.0
sS'705'
p1587
F0.0
sS'607'
p1588
F0.0
sS'152'
p1589
F0.0
sS'64'
p1590
F0.0
sS'510'
p1591
F0.0
ssS'468'
p1592
(dp1593
S'216'
p1594
F0.0
sS'692'
p1595
F0.0
sS'214'
p1596
F0.0
sS'25'
p1597
F0.0
sS'955'
p1598
F0.0
sS'662'
p1599
F0.0
sS'218'
p1600
F0.0
sS'132'
p1601
F0.0
sS'498'
p1602
F0.0
sS'135'
p1603
F0.0
ssS'465'
p1604
(dp1605
S'216'
p1606
F0.0
sS'151'
p1607
F0.0
sS'319'
p1608
F0.0
sS'318'
p1609
F0.0
sS'199'
p1610
F0.0
sS'198'
p1611
F0.0
sS'603'
p1612
F0.0
sS'194'
p1613
F0.0
sS'191'
p1614
F0.0
sS'190'
p1615
F0.0
ssS'464'
p1616
(dp1617
S'1226'
p1618
F0.0
sS'709'
p1619
F0.0
sS'603'
p1620
F0.0
sS'748'
p1621
F0.0
sS'194'
p1622
F0.0
sS'333'
p1623
F0.0
sS'332'
p1624
F0.0
sS'270'
p1625
F0.0
sS'127'
p1626
F0.0
sS'248'
p1627
F0.0
ssS'467'
p1628
(dp1629
S'1142'
p1630
F0.0
sS'150'
p1631
F0.0
sS'742'
p1632
F0.0
sS'1226'
p1633
F0.0
sS'762'
p1634
F0.0
sS'455'
p1635
F0.0
sS'117'
p1636
F0.0
sS'273'
p1637
F0.0
sS'127'
p1638
F0.0
sS'269'
p1639
F0.0
ssS'466'
p1640
(dp1641
S'24'
p1642
F0.0
sS'27'
p1643
F0.0
sS'210'
p1644
F0.0
sS'22'
p1645
F0.0
sS'344'
p1646
F0.0
sS'288'
p1647
F0.0
sS'346'
p1648
F0.0
sS'546'
p1649
F0.0
sS'4'
p1650
F0.0
sS'349'
p1651
F0.0
ssS'461'
p1652
(dp1653
S'347'
p1654
F0.0
sS'319'
p1655
F0.0
sS'313'
p1656
F0.0
sS'158'
p1657
F0.0
sS'575'
p1658
F0.0
sS'748'
p1659
F0.0
sS'258'
p1660
F0.0
sS'259'
p1661
F0.0
sS'327'
p1662
F0.0
sS'255'
p1663
F0.0
ssS'460'
p1664
(dp1665
S'591'
p1666
F0.0
sS'458'
p1667
F0.0
sS'744'
p1668
F0.0
sS'313'
p1669
F0.0
sS'312'
p1670
F0.0
sS'311'
p1671
F0.0
sS'258'
p1672
F0.0
sS'273'
p1673
F0.0
sS'137'
p1674
F0.0
sS'242'
p1675
F0.0
ssS'463'
p1676
(dp1677
S'24'
p1678
F0.0
sS'25'
p1679
F0.0
sS'690'
p1680
F0.0
sS'20'
p1681
F0.0
sS'21'
p1682
F0.0
sS'870'
p1683
F0.0
sS'740'
p1684
F0.0
sS'137'
p1685
F0.0
sS'764'
p1686
F0.0
sS'225'
p1687
F0.0
ssS'462'
p1688
(dp1689
S'313'
p1690
F0.0
sS'310'
p1691
F0.0
sS'330'
p1692
F0.0
sS'315'
p1693
F0.0
sS'332'
p1694
F0.0
sS'271'
p1695
F0.0
sS'272'
p1696
F0.0
sS'259'
p1697
F0.0
sS'136'
p1698
F0.0
sS'181'
p1699
F0.0
ssS'546'
p1700
(dp1701
S'458'
p1702
F0.0
sS'590'
p1703
F0.0
sS'892'
p1704
F0.0
sS'769'
p1705
F0.0
sS'200'
p1706
F0.0
sS'313'
p1707
F0.0
sS'760'
p1708
F0.0
sS'457'
p1709
F0.0
sS'271'
p1710
F0.0
sS'258'
p1711
F0.0
ssS'547'
p1712
(dp1713
S'319'
p1714
F0.0
sS'338'
p1715
F0.0
sS'313'
p1716
F0.0
sS'312'
p1717
F0.0
sS'311'
p1718
F0.0
sS'316'
p1719
F0.0
sS'333'
p1720
F0.0
sS'332'
p1721
F0.0
sS'289'
p1722
F0.0
sS'258'
p1723
F0.0
ssS'479'
p1724
(dp1725
S'216'
p1726
F0.0
sS'1142'
p1727
F0.0
sS'215'
p1728
F0.0
sS'213'
p1729
F0.0
sS'210'
p1730
F0.0
sS'211'
p1731
F0.0
sS'133'
p1732
F0.0
sS'131'
p1733
F0.0
sS'66'
p1734
F0.0
sS'264'
p1735
F0.0
ssS'544'
p1736
(dp1737
S'338'
p1738
F0.0
sS'271'
p1739
F0.0
sS'748'
p1740
F0.0
sS'749'
p1741
F0.0
sS'310'
p1742
F0.0
sS'331'
p1743
F0.0
sS'332'
p1744
F0.0
sS'270'
p1745
F0.0
sS'313'
p1746
F0.0
sS'258'
p1747
F0.0
ssS'559'
p1748
(dp1749
S'216'
p1750
F0.0
sS'153'
p1751
F0.0
sS'318'
p1752
F0.0
sS'199'
p1753
F0.0
sS'210'
p1754
F0.0
sS'195'
p1755
F0.0
sS'194'
p1756
F0.0
sS'197'
p1757
F0.0
sS'196'
p1758
F0.0
sS'521'
p1759
F0.0
ssS'558'
p1760
(dp1761
S'847'
p1762
F0.0
sS'1068'
p1763
F0.0
sS'20'
p1764
F0.0
sS'14'
p1765
F0.0
sS'19'
p1766
F0.0
sS'15'
p1767
F0.0
sS'137'
p1768
F0.0
sS'744'
p1769
F0.0
sS'269'
p1770
F0.0
sS'100'
p1771
F0.0
ssS'555'
p1772
(dp1773
S'150'
p1774
F0.0
sS'319'
p1775
F0.0
sS'318'
p1776
F0.0
sS'271'
p1777
F0.0
sS'748'
p1778
F0.0
sS'50'
p1779
F0.0
sS'762'
p1780
F0.0
sS'117'
p1781
F0.0
sS'89'
p1782
F0.0
sS'265'
p1783
F0.0
ssS'554'
p1784
(dp1785
S'216'
p1786
F0.0
sS'692'
p1787
F0.0
sS'215'
p1788
F0.0
sS'696'
p1789
F0.0
sS'21'
p1790
F0.0
sS'22'
p1791
F0.0
sS'218'
p1792
F0.0
sS'133'
p1793
F0.0
sS'132'
p1794
F0.0
sS'95'
p1795
F0.0
ssS'557'
p1796
(dp1797
S'150'
p1798
F0.0
sS'887'
p1799
F0.0
sS'198'
p1800
F0.0
sS'334'
p1801
F0.0
sS'337'
p1802
F0.0
sS'270'
p1803
F0.0
sS'271'
p1804
F0.0
sS'252'
p1805
F0.0
sS'176'
p1806
F0.0
sS'197'
p1807
F0.0
ssS'556'
p1808
(dp1809
S'604'
p1810
F0.0
sS'988'
p1811
F0.0
sS'318'
p1812
F0.0
sS'603'
p1813
F0.0
sS'319'
p1814
F0.0
sS'192'
p1815
F0.0
sS'133'
p1816
F0.0
sS'132'
p1817
F0.0
sS'64'
p1818
F0.0
sS'178'
p1819
F0.0
ssS'551'
p1820
(dp1821
S'216'
p1822
F0.0
sS'217'
p1823
F0.0
sS'215'
p1824
F0.0
sS'210'
p1825
F0.0
sS'693'
p1826
F0.0
sS'762'
p1827
F0.0
sS'760'
p1828
F0.0
sS'1303'
p1829
F0.0
sS'955'
p1830
F0.0
sS'66'
p1831
F0.0
ssS'550'
p1832
(dp1833
S'596'
p1834
F0.0
sS'748'
p1835
F0.0
sS'310'
p1836
F0.0
sS'1089'
p1837
F0.0
sS'271'
p1838
F0.0
sS'258'
p1839
F0.0
sS'259'
p1840
F0.0
sS'275'
p1841
F0.0
sS'252'
p1842
F0.0
sS'313'
p1843
F0.0
ssS'553'
p1844
(dp1845
S'213'
p1846
F0.0
sS'218'
p1847
F0.0
sS'132'
p1848
F0.0
sS'131'
p1849
F0.0
sS'498'
p1850
F0.0
sS'136'
p1851
F0.0
sS'135'
p1852
F0.0
sS'134'
p1853
F0.0
sS'496'
p1854
F0.0
sS'497'
p1855
F0.0
ssS'552'
p1856
(dp1857
S'151'
p1858
F0.0
sS'591'
p1859
F0.0
sS'742'
p1860
F0.0
sS'620'
p1861
F0.0
sS'1095'
p1862
F0.0
sS'748'
p1863
F0.0
sS'760'
p1864
F0.0
sS'336'
p1865
F0.0
sS'126'
p1866
F0.0
sS'257'
p1867
F0.0
ssS'545'
p1868
(dp1869
S'217'
p1870
F0.0
sS'215'
p1871
F0.0
sS'210'
p1872
F0.0
sS'211'
p1873
F0.0
sS'665'
p1874
F0.0
sS'218'
p1875
F0.0
sS'219'
p1876
F0.0
sS'132'
p1877
F0.0
sS'135'
p1878
F0.0
sS'139'
p1879
F0.0
ssS'560'
p1880
(dp1881
S'24'
p1882
F0.0
sS'25'
p1883
F0.0
sS'211'
p1884
F0.0
sS'134'
p1885
F0.0
sS'1265'
p1886
F0.0
sS'132'
p1887
F0.0
sS'498'
p1888
F0.0
sS'136'
p1889
F0.0
sS'127'
p1890
F0.0
sS'496'
p1891
F0.0
ssS'488'
p1892
(dp1893
S'216'
p1894
F0.0
sS'215'
p1895
F0.0
sS'210'
p1896
F0.0
sS'211'
p1897
F0.0
sS'662'
p1898
F0.0
sS'133'
p1899
F0.0
sS'132'
p1900
F0.0
sS'498'
p1901
F0.0
sS'136'
p1902
F0.0
sS'135'
p1903
F0.0
ssS'561'
p1904
(dp1905
S'1069'
p1906
F0.0
sS'199'
p1907
F0.0
sS'719'
p1908
F0.0
sS'715'
p1909
F0.0
sS'664'
p1910
F0.0
sS'710'
p1911
F0.0
sS'345'
p1912
F0.0
sS'346'
p1913
F0.0
sS'343'
p1914
F0.0
sS'811'
p1915
F0.0
ssS'562'
p1916
(dp1917
S'458'
p1918
F0.0
sS'591'
p1919
F0.0
sS'153'
p1920
F0.0
sS'318'
p1921
F0.0
sS'194'
p1922
F0.0
sS'197'
p1923
F0.0
sS'191'
p1924
F0.0
sS'190'
p1925
F0.0
sS'218'
p1926
F0.0
sS'135'
p1927
F0.0
ssS'477'
p1928
(dp1929
S'709'
p1930
F0.0
sS'451'
p1931
F0.0
sS'553'
p1932
F0.0
sS'289'
p1933
F0.0
sS'88'
p1934
F0.0
sS'111'
p1935
F0.0
sS'275'
p1936
F0.0
sS'66'
p1937
F0.0
sS'237'
p1938
F0.0
sS'255'
p1939
F0.0
ssS'563'
p1940
(dp1941
S'692'
p1942
F0.0
sS'153'
p1943
F0.0
sS'210'
p1944
F0.0
sS'257'
p1945
F0.0
sS'181'
p1946
F0.0
sS'237'
p1947
F0.0
sS'118'
p1948
F0.0
sS'172'
p1949
F0.0
sS'254'
p1950
F0.0
sS'255'
p1951
F0.0
ssS'564'
p1952
(dp1953
S'831'
p1954
F0.0
sS'597'
p1955
F0.0
sS'313'
p1956
F0.0
sS'312'
p1957
F0.0
sS'258'
p1958
F0.0
sS'333'
p1959
F0.0
sS'289'
p1960
F0.0
sS'117'
p1961
F0.0
sS'257'
p1962
F0.0
sS'272'
p1963
F0.0
ssS'511'
p1964
(dp1965
S'880'
p1966
F0.0
sS'887'
p1967
F0.0
sS'288'
p1968
F0.0
sS'313'
p1969
F0.0
sS'872'
p1970
F0.0
sS'333'
p1971
F0.0
sS'322'
p1972
F0.0
sS'271'
p1973
F0.0
sS'346'
p1974
F0.0
sS'1527'
p1975
F0.0
ssS'489'
p1976
(dp1977
S'872'
p1978
F0.0
sS'1613'
p1979
F0.0
sS'1265'
p1980
F0.0
sS'289'
p1981
F0.0
sS'288'
p1982
F0.0
sS'346'
p1983
F0.0
sS'347'
p1984
F0.0
sS'340'
p1985
F0.0
sS'342'
p1986
F0.0
sS'343'
p1987
F0.0
ssS'437'
p1988
(dp1989
S'216'
p1990
F0.0
sS'217'
p1991
F0.0
sS'214'
p1992
F0.0
sS'215'
p1993
F0.0
sS'212'
p1994
F0.0
sS'213'
p1995
F0.0
sS'210'
p1996
F0.0
sS'211'
p1997
F0.0
sS'1262'
p1998
F0.0
sS'665'
p1999
F0.0
ssS'487'
p2000
(dp2001
S'216'
p2002
F0.0
sS'768'
p2003
F0.0
sS'215'
p2004
F0.0
sS'210'
p2005
F0.0
sS'313'
p2006
F0.0
sS'42'
p2007
F0.0
sS'218'
p2008
F0.0
sS'133'
p2009
F0.0
sS'578'
p2010
F0.0
sS'178'
p2011
F0.0
ssS'486'
p2012
(dp2013
S'1142'
p2014
F0.0
sS'1143'
p2015
F0.0
sS'1302'
p2016
F0.0
sS'1226'
p2017
F0.0
sS'762'
p2018
F0.0
sS'766'
p2019
F0.0
sS'1610'
p2020
F0.0
sS'137'
p2021
F0.0
sS'264'
p2022
F0.0
sS'459'
p2023
F0.0
ssS'485'
p2024
(dp2025
S'319'
p2026
F0.0
sS'345'
p2027
F0.0
sS'313'
p2028
F0.0
sS'311'
p2029
F0.0
sS'330'
p2030
F0.0
sS'289'
p2031
F0.0
sS'748'
p2032
F0.0
sS'346'
p2033
F0.0
sS'347'
p2034
F0.0
sS'288'
p2035
F0.0
ssS'484'
p2036
(dp2037
S'216'
p2038
F0.0
sS'692'
p2039
F0.0
sS'22'
p2040
F0.0
sS'210'
p2041
F0.0
sS'211'
p2042
F0.0
sS'665'
p2043
F0.0
sS'699'
p2044
F0.0
sS'136'
p2045
F0.0
sS'135'
p2046
F0.0
sS'25'
p2047
F0.0
ssS'483'
p2048
(dp2049
S'151'
p2050
F0.0
sS'449'
p2051
F0.0
sS'318'
p2052
F0.0
sS'199'
p2053
F0.0
sS'313'
p2054
F0.0
sS'197'
p2055
F0.0
sS'270'
p2056
F0.0
sS'271'
p2057
F0.0
sS'258'
p2058
F0.0
sS'116'
p2059
F0.0
ssS'434'
p2060
(dp2061
S'151'
p2062
F0.0
sS'1095'
p2063
F0.0
sS'743'
p2064
F0.0
sS'1051'
p2065
F0.0
sS'763'
p2066
F0.0
sS'628'
p2067
F0.0
sS'111'
p2068
F0.0
sS'275'
p2069
F0.0
sS'237'
p2070
F0.0
sS'118'
p2071
F0.0
ssS'481'
p2072
(dp2073
S'216'
p2074
F0.0
sS'153'
p2075
F0.0
sS'318'
p2076
F0.0
sS'199'
p2077
F0.0
sS'198'
p2078
F0.0
sS'210'
p2079
F0.0
sS'596'
p2080
F0.0
sS'313'
p2081
F0.0
sS'197'
p2082
F0.0
sS'70'
p2083
F0.0
ssS'480'
p2084
(dp2085
S'319'
p2086
F0.0
sS'152'
p2087
F0.0
sS'213'
p2088
F0.0
sS'603'
p2089
F0.0
sS'705'
p2090
F0.0
sS'197'
p2091
F0.0
sS'191'
p2092
F0.0
sS'190'
p2093
F0.0
sS'661'
p2094
F0.0
sS'50'
p2095
F0.0
ssS'512'
p2096
(dp2097
S'11'
p2098
F0.0
sS'318'
p2099
F0.0
sS'198'
p2100
F0.0
sS'23'
p2101
F0.0
sS'313'
p2102
F0.0
sS'191'
p2103
F0.0
sS'302'
p2104
F0.0
sS'56'
p2105
F0.0
sS'1238'
p2106
F0.0
sS'273'
p2107
F0.0
ssS'515'
p2108
(dp2109
S'750'
p2110
F0.0
sS'895'
p2111
F0.0
sS'271'
p2112
F0.0
sS'748'
p2113
F0.0
sS'310'
p2114
F0.0
sS'315'
p2115
F0.0
sS'332'
p2116
F0.0
sS'289'
p2117
F0.0
sS'313'
p2118
F0.0
sS'258'
p2119
F0.0
ssS'514'
p2120
(dp2121
S'216'
p2122
F0.0
sS'214'
p2123
F0.0
sS'215'
p2124
F0.0
sS'210'
p2125
F0.0
sS'211'
p2126
F0.0
sS'132'
p2127
F0.0
sS'137'
p2128
F0.0
sS'136'
p2129
F0.0
sS'135'
p2130
F0.0
sS'134'
p2131
F0.0
ssS'472'
p2132
(dp2133
S'216'
p2134
F0.0
sS'217'
p2135
F0.0
sS'768'
p2136
F0.0
sS'215'
p2137
F0.0
sS'210'
p2138
F0.0
sS'313'
p2139
F0.0
sS'763'
p2140
F0.0
sS'665'
p2141
F0.0
sS'214'
p2142
F0.0
sS'218'
p2143
F0.0
ssS'473'
p2144
(dp2145
S'1142'
p2146
F0.0
sS'1129'
p2147
F0.0
sS'319'
p2148
F0.0
sS'1143'
p2149
F0.0
sS'273'
p2150
F0.0
sS'137'
p2151
F0.0
sS'275'
p2152
F0.0
sS'276'
p2153
F0.0
sS'127'
p2154
F0.0
sS'256'
p2155
F0.0
ssS'470'
p2156
(dp2157
S'458'
p2158
F0.0
sS'150'
p2159
F0.0
sS'319'
p2160
F0.0
sS'1084'
p2161
F0.0
sS'742'
p2162
F0.0
sS'258'
p2163
F0.0
sS'273'
p2164
F0.0
sS'137'
p2165
F0.0
sS'276'
p2166
F0.0
sS'257'
p2167
F0.0
ssS'471'
p2168
(dp2169
S'151'
p2170
F0.0
sg262
F0.0
sS'768'
p2171
F0.0
sS'627'
p2172
F0.0
sS'878'
p2173
F0.0
sS'596'
p2174
F0.0
sS'50'
p2175
F0.0
sS'393'
p2176
F0.0
sS'82'
p2177
F0.0
sS'172'
p2178
F0.0
ssS'476'
p2179
(dp2180
S'216'
p2181
F0.0
sS'201'
p2182
F0.0
sS'579'
p2183
F0.0
sS'746'
p2184
F0.0
sS'211'
p2185
F0.0
sS'748'
p2186
F0.0
sS'194'
p2187
F0.0
sS'319'
p2188
F0.0
sS'384'
p2189
F0.0
sS'70'
p2190
F0.0
ssS'517'
p2191
(dp2192
S'740'
p2193
F0.0
sS'597'
p2194
F0.0
sS'335'
p2195
F0.0
sS'311'
p2196
F0.0
sS'761'
p2197
F0.0
sS'117'
p2198
F0.0
sS'333'
p2199
F0.0
sS'258'
p2200
F0.0
sS'111'
p2201
F0.0
sS'275'
p2202
F0.0
ssS'474'
p2203
(dp2204
S'216'
p2205
F0.0
sS'215'
p2206
F0.0
sS'212'
p2207
F0.0
sS'213'
p2208
F0.0
sS'210'
p2209
F0.0
sS'211'
p2210
F0.0
sS'664'
p2211
F0.0
sS'663'
p2212
F0.0
sS'1200'
p2213
F0.0
sS'66'
p2214
F0.0
ssS'475'
p2215
(dp2216
S'902'
p2217
F0.0
sS'313'
p2218
F0.0
sS'303'
p2219
F0.0
sS'316'
p2220
F0.0
sS'315'
p2221
F0.0
sS'354'
p2222
F0.0
sS'381'
p2223
F0.0
sS'259'
p2224
F0.0
sS'127'
p2225
F0.0
sS'50'
p2226
F0.0
ssS'478'
p2227
(dp2228
S'216'
p2229
F0.0
sS'26'
p2230
F0.0
sS'23'
p2231
F0.0
sS'762'
p2232
F0.0
sS'763'
p2233
F0.0
sS'218'
p2234
F0.0
sS'219'
p2235
F0.0
sS'137'
p2236
F0.0
sS'134'
p2237
F0.0
sS'496'
p2238
F0.0
ssS'431'
p2239
(dp2240
S'988'
p2241
F0.0
sS'879'
p2242
F0.0
sS'748'
p2243
F0.0
sS'302'
p2244
F0.0
sS'303'
p2245
F0.0
sS'690'
p2246
F0.0
sS'332'
p2247
F0.0
sS'245'
p2248
F0.0
sS'300'
p2249
F0.0
sS'754'
p2250
F0.0
ss.