(dp0
S'768'
p1
(dp2
S'591'
p3
F3.429600963414089
sS'151'
p4
F0.0
sS'742'
p5
F4.446799946799946
sS'620'
p6
F2.9947581424697387
sS'744'
p7
F3.428716176338951
sS'597'
p8
F0.0
sS'313'
p9
F4.556847251498129
sS'763'
p10
F4.0
sS'628'
p11
F3.4048317975037246
sS'315'
p12
F4.446520910279018
ssS'769'
p13
(dp14
S'1322'
p15
F0.0
sS'831'
p16
F0.0
sS'597'
p17
F0.0
sS'748'
p18
F0.0
sS'1'
p19
F0.0
sS'258'
p20
F0.0
sS'111'
p21
F0.0
sS'235'
p22
F0.0
sS'237'
p23
F0.0
sS'118'
p24
F0.0
ssS'762'
p25
(dp26
S'709'
p27
F0.0
sS'749'
p28
F4.0
sS'302'
p29
F0.0
sS'875'
p30
F0.0
sS'955'
p31
F0.0
sS'332'
p32
F0.0
sS'270'
p33
F0.0
sS'111'
p34
F0.0
sS'515'
p35
F0.0
sS'815'
p36
F0.0
ssS'763'
p37
(dp38
S'692'
p39
F3.382999649521628
sS'25'
p40
F0.0
sS'1268'
p41
F0.0
sS'212'
p42
F0.0
sS'213'
p43
F0.0
sS'210'
p44
F0.0
sS'133'
p45
F4.0
sS'132'
p46
F4.568786743542047
sS'137'
p47
F5.0
sS'135'
p48
F0.0
ssS'760'
p49
(dp50
S'216'
p51
F0.0
sS'604'
p52
F3.0000000000000004
sS'776'
p53
F0.0
sS'748'
p54
F0.0
sS'451'
p55
F0.0
sS'195'
p56
F0.0
sS'258'
p57
F0.0
sS'111'
p58
F0.0
sS'65'
p59
F0.0
sS'66'
p60
F3.432927386572111
ssS'761'
p61
(dp62
S'458'
p63
F0.0
sS'151'
p64
F0.0
sS'214'
p65
F0.0
sS'1163'
p66
F3.0
sS'748'
p67
F0.0
sS'628'
p68
F0.0
sS'455'
p69
F2.9999999999999996
sS'1152'
p70
F1.0
sS'258'
p71
F0.0
sS'864'
p72
F0.0
ssS'766'
p73
(dp74
S'216'
p75
F3.472721182369022
sS'217'
p76
F3.0000000000000004
sS'214'
p77
F2.9460922808579446
sS'215'
p78
F3.1582279028732922
sS'212'
p79
F0.0
sS'211'
p80
F3.5681630810724867
sS'664'
p81
F3.61647707064217
sS'663'
p82
F3.5503680358376632
sS'662'
p83
F2.9999999999999996
sS'219'
p84
F0.0
ssS'767'
p85
(dp86
S'22'
p87
F0.0
sS'1121'
p88
F0.0
sS'28'
p89
F0.0
sS'344'
p90
F0.0
sS'657'
p91
F5.0
sS'495'
p92
F4.082066447748714
sS'177'
p93
F0.0
sS'176'
p94
F4.0
sS'172'
p95
F0.0
sS'170'
p96
F0.0
ssS'764'
p97
(dp98
S'216'
p99
F3.8554268895327257
sS'693'
p100
F3.747728072637013
sS'696'
p101
F3.5243400157074594
sS'21'
p102
F2.1593065041855724
sS'22'
p103
F5.0
sS'692'
p104
F3.617713475469844
sS'218'
p105
F3.7231283114271547
sS'132'
p106
F3.7971834873252424
sS'496'
p107
F4.15584751500582
sS'95'
p108
F4.177473432502413
ssS'765'
p109
(dp110
S'151'
p111
F0.0
sS'25'
p112
F0.0
sS'971'
p113
F4.4640057705025065
sS'42'
p114
F0.0
sS'137'
p115
F0.0
sS'275'
p116
F0.0
sS'242'
p117
F0.0
sS'237'
p118
F0.0
sS'248'
p119
F0.0
sS'170'
p120
F0.0
ssS'818'
p121
(dp122
S'751'
p123
F4.0
sS'875'
p124
F0.0
sS'887'
p125
F4.0
sS'300'
p126
F0.0
sS'312'
p127
F4.0
sS'302'
p128
F0.0
sS'303'
p129
F4.0
sS'690'
p130
F0.0
sS'245'
p131
F4.0
sS'288'
p132
F0.0
ssS'819'
p133
(dp134
S'319'
p135
F0.0
sS'1160'
p136
F0.0
sS'258'
p137
F0.0
sS'315'
p138
F4.3801238812575685
sS'182'
p139
F0.0
sS'345'
p140
F0.0
sS'346'
p141
F4.723022033789042
sS'177'
p142
F5.0
sS'744'
p143
F4.209628448432319
sS'255'
p144
F0.0
ssS'939'
p145
(dp146
S'591'
p147
F0.0
sS'742'
p148
F0.0
sS'597'
p149
F0.0
sS'258'
p150
F0.0
sS'274'
p151
F0.0
sS'275'
p152
F0.0
sS'252'
p153
F0.0
sS'546'
p154
F0.0
sS'237'
p155
F0.0
sS'118'
p156
F0.0
ssS'938'
p157
(dp158
S'25'
p159
F0.0
sS'762'
p160
F3.8416404968924702
sS'763'
p161
F3.9347124596043384
sS'289'
p162
F0.0
sS'406'
p163
F4.45714112079247
sS'405'
p164
F0.0
sS'546'
p165
F0.0
sS'343'
p166
F3.917471350807778
sS'281'
p167
F5.000000000000001
sS'284'
p168
F0.0
ssS'810'
p169
(dp170
S'881'
p171
F0.0
sS'339'
p172
F0.0
sS'338'
p173
F4.0
sS'878'
p174
F4.0
sS'879'
p175
F4.538798035569141
sS'313'
p176
F0.0
sS'331'
p177
F3.0
sS'873'
p178
F0.0
sS'333'
p179
F3.0
sS'876'
p180
F0.0
ssS'811'
p181
(dp182
S'308'
p183
F0.0
sS'690'
p184
F0.0
sS'901'
p185
F4.0
sS'678'
p186
F5.0
sS'895'
p187
F0.0
sS'300'
p188
F0.0
sS'301'
p189
F0.0
sS'304'
p190
F0.0
sS'892'
p191
F0.0
sS'748'
p192
F0.0
ssS'812'
p193
(dp194
S'881'
p195
F0.0
sS'678'
p196
F0.0
sS'748'
p197
F0.0
sS'302'
p198
F0.0
sS'873'
p199
F0.0
sS'333'
p200
F0.0
sS'332'
p201
F0.0
sS'289'
p202
F0.0
sS'300'
p203
F0.0
sS'292'
p204
F0.0
ssS'813'
p205
(dp206
S'988'
p207
F0.0
sS'893'
p208
F1.0
sS'335'
p209
F0.0
sS'877'
p210
F0.0
sS'310'
p211
F0.0
sS'751'
p212
F0.0
sS'270'
p213
F0.0
sS'271'
p214
F0.0
sS'259'
p215
F0.0
sS'690'
p216
F0.0
ssS'814'
p217
(dp218
S'590'
p219
F0.0
sS'145'
p220
F2.0
sS'559'
p221
F3.0
sS'669'
p222
F0.0
sS'667'
p223
F0.0
sS'665'
p224
F0.0
sS'218'
p225
F0.0
sS'219'
p226
F0.0
sS'288'
p227
F0.0
sS'234'
p228
F0.0
ssS'815'
p229
(dp230
S'216'
p231
F4.145029320856193
sS'217'
p232
F5.0
sS'214'
p233
F0.0
sS'215'
p234
F4.244599182013174
sS'210'
p235
F4.278895251685131
sS'665'
p236
F0.0
sS'660'
p237
F3.5686030753470703
sS'133'
p238
F3.7434409853034762
sS'132'
p239
F4.420236975507906
sS'131'
p240
F4.0919353803004785
ssS'816'
p241
(dp242
S'690'
p243
F0.0
sS'271'
p244
F0.0
sS'313'
p245
F0.0
sS'331'
p246
F4.0
sS'332'
p247
F0.0
sS'322'
p248
F0.0
sS'323'
p249
F4.392867205000501
sS'258'
p250
F0.0
sS'259'
p251
F3.744086372297494
sS'288'
p252
F0.0
ssS'817'
p253
(dp254
S'24'
p255
F0.0
sS'831'
p256
F0.0
sS'597'
p257
F0.0
sS'748'
p258
F0.0
sS'455'
p259
F3.0
sS'289'
p260
F0.0
sS'876'
p261
F0.0
sS'258'
p262
F0.0
sS'273'
p263
F0.0
sS'118'
p264
F3.0
ssS'907'
p265
(dp266
S'25'
p267
F0.0
sS'696'
p268
F4.637761268492104
sS'697'
p269
F0.0
sS'762'
p270
F4.840279762353858
sS'763'
p271
F5.0
sS'699'
p272
F4.644877442188149
sS'764'
p273
F0.0
sS'819'
p274
F3.7089822994176314
sS'496'
p275
F4.0
sS'497'
p276
F5.0
ssS'928'
p277
(dp278
S'135'
p279
F0.0
sS'749'
p280
F3.0
sS'191'
p281
F0.0
sS'333'
p282
F0.0
sS'114'
p283
F5.0
sS'276'
p284
F0.0
sS'134'
p285
F0.0
sS'176'
p286
F0.0
sS'496'
p287
F0.0
sS'173'
p288
F0.0
ssS'929'
p289
(dp290
S'318'
p291
F0.0
sS'135'
p292
F0.0
sS'195'
p293
F0.0
sS'197'
p294
F3.442008533511092
sS'429'
p295
F4.250160411000517
sS'271'
p296
F0.0
sS'89'
p297
F0.0
sS'136'
p298
F3.725038023197939
sS'276'
p299
F0.0
sS'134'
p300
F3.5458174428609293
ssS'829'
p301
(dp302
S'151'
p303
F0.0
sS'458'
p304
F0.0
sS'153'
p305
F0.0
sS'318'
p306
F0.0
sS'339'
p307
F0.0
sS'198'
p308
F0.0
sS'1120'
p309
F3.3714461678177545
sS'705'
p310
F4.0
sS'310'
p311
F0.0
sS'319'
p312
F0.0
ssS'828'
p313
(dp314
S'24'
p315
F0.0
sS'26'
p316
F0.0
sS'1268'
p317
F0.0
sS'20'
p318
F4.0
sS'213'
p319
F3.2381150267471694
sS'694'
p320
F0.0
sS'1073'
p321
F0.0
sS'288'
p322
F0.0
sS'346'
p323
F3.7455862378207754
sS'347'
p324
F3.274600736325063
ssS'860'
p325
(dp326
S'216'
p327
F0.0
sS'153'
p328
F0.0
sS'56'
p329
F0.0
sS'339'
p330
F0.0
sS'211'
p331
F3.0000000000000004
sS'159'
p332
F0.0
sS'312'
p333
F2.0
sS'311'
p334
F3.4421811924425616
sS'310'
p335
F4.0
sS'663'
p336
F0.0
ssS'920'
p337
(dp338
S'313'
p339
F0.0
sS'1612'
p340
F2.271995395062499
sS'311'
p341
F0.0
sS'310'
p342
F3.0
sS'331'
p343
F2.0
sS'333'
p344
F0.0
sS'332'
p345
F3.0
sS'270'
p346
F0.0
sS'288'
p347
F0.0
sS'258'
p348
F0.0
ssS'921'
p349
(dp350
S'24'
p351
F2.373868696961834
sS'215'
p352
F3.8286983141437827
sS'210'
p353
F3.991943249021478
sS'762'
p354
F3.58660677791258
sS'763'
p355
F3.0
sS'760'
p356
F3.0
sS'662'
p357
F0.0
sS'133'
p358
F2.440112238730615
sS'132'
p359
F3.614619121391393
sS'136'
p360
F4.384953944837208
ssS'922'
p361
(dp362
S'216'
p363
F3.729930410049077
sS'217'
p364
F4.0
sS'214'
p365
F3.0
sS'215'
p366
F3.7497337601143923
sS'212'
p367
F0.0
sS'210'
p368
F3.8345582686125765
sS'662'
p369
F3.0
sS'660'
p370
F4.56860307534707
sS'135'
p371
F3.4528634606359603
sS'227'
p372
F3.702098994245938
ssS'923'
p373
(dp374
S'151'
p375
F0.0
sS'741'
p376
F0.0
sS'742'
p377
F4.0
sS'338'
p378
F3.56237942826603
sS'762'
p379
F4.422658265827377
sS'334'
p380
F0.0
sS'628'
p381
F4.498538130411977
sS'50'
p382
F5.0
sS'456'
p383
F4.0
sS'455'
p384
F0.0
ssS'924'
p385
(dp386
S'216'
p387
F4.336626719487545
sS'605'
p388
F3.0
sS'742'
p389
F2.0
sS'318'
p390
F3.71336529144897
sS'211'
p391
F4.238960940534904
sS'195'
p392
F4.0
sS'705'
p393
F5.0
sS'1149'
p394
F2.6422319012178614
sS'701'
p395
F0.0
sS'127'
p396
F4.105211334304643
ssS'820'
p397
(dp398
S'751'
p399
F0.0
sS'895'
p400
F5.0
sS'748'
p401
F0.0
sS'301'
p402
F0.0
sS'302'
p403
F0.0
sS'316'
p404
F5.0
sS'315'
p405
F0.0
sS'289'
p406
F0.0
sS'271'
p407
F0.0
sS'343'
p408
F0.0
ssS'823'
p409
(dp410
S'216'
p411
F5.0
sS'217'
p412
F0.0
sS'215'
p413
F0.0
sS'210'
p414
F4.521447328904328
sS'211'
p415
F0.0
sS'762'
p416
F3.997376751235485
sS'1267'
p417
F0.0
sS'218'
p418
F0.0
sS'660'
p419
F5.0
sS'66'
p420
F4.0
ssS'822'
p421
(dp422
S'25'
p423
F0.0
sS'751'
p424
F4.0
sS'333'
p425
F0.0
sg19
F0.0
sS'1110'
p426
F0.0
sS'272'
p427
F4.0
sS'111'
p428
F0.0
sS'235'
p429
F0.0
sS'189'
p430
F4.0
sS'408'
p431
F4.0
ssS'775'
p432
(dp433
S'270'
p434
F0.0
sS'690'
p435
F0.0
sS'887'
p436
F0.0
sS'313'
p437
F0.0
sS'312'
p438
F0.0
sS'310'
p439
F4.0
sS'331'
p440
F3.4069679773276516
sS'315'
p441
F0.0
sS'344'
p442
F3.857750010330962
sS'272'
p443
F0.0
ssS'847'
p444
(dp445
S'216'
p446
F3.3401288998879504
sS'210'
p447
F3.713077925020836
sS'211'
p448
F3.023322655388671
sS'763'
p449
F4.0
sS'663'
p450
F3.366953841183344
sS'218'
p451
F3.2875872487694684
sS'219'
p452
F4.0
sS'133'
p453
F3.4436064023278443
sS'499'
p454
F3.1345299226933543
sS'135'
p455
F4.0
ssS'774'
p456
(dp457
S'1305'
p458
F0.0
sS'214'
p459
F1.5193266774141851
sS'215'
p460
F2.283152151678713
sS'199'
p461
F2.964092459296645
sS'210'
p462
F2.7194254601300973
sS'211'
p463
F2.0
sS'218'
p464
F2.1565131470891825
sS'525'
p465
F2.037579437891543
sS'135'
p466
F5.0
sS'91'
p467
F2.028970175140661
ssS'777'
p468
(dp469
S'216'
p470
F0.0
sS'692'
p471
F0.0
sS'153'
p472
F0.0
sS'212'
p473
F0.0
sS'157'
p474
F4.238067844528056
sS'196'
p475
F0.0
sS'117'
p476
F0.0
sS'273'
p477
F0.0
sS'238'
p478
F4.587794554902456
sS'135'
p479
F0.0
ssS'776'
p480
(dp481
S'217'
p482
F1.0
sS'769'
p483
F2.4881375064365936
sS'667'
p484
F2.4345575572282745
sS'760'
p485
F2.0
sS'661'
p486
F3.076717665595357
sS'219'
p487
F0.0
sS'135'
p488
F2.8208813868330385
sS'134'
p489
F4.31913523157951
sS'91'
p490
F0.0
sS'496'
p491
F4.073113404587391
ssS'771'
p492
(dp493
S'216'
p494
F3.7687668316959053
sS'1129'
p495
F0.0
sS'768'
p496
F0.0
sS'154'
p497
F4.186082531300187
sS'762'
p498
F3.6371328318371106
sS'197'
p499
F3.6500870455475547
sS'707'
p500
F4.144386970757711
sS'144'
p501
F0.0
sS'98'
p502
F5.0
sS'134'
p503
F4.539973004164895
ssS'770'
p504
(dp505
S'151'
p506
F0.0
sS'742'
p507
F0.0
sS'596'
p508
F0.0
sS'748'
p509
F0.0
sS'334'
p510
F0.0
sS'331'
p511
F4.572455622605558
sS'988'
p512
F0.0
sS'333'
p513
F4.0
sS'258'
p514
F0.0
sS'111'
p515
F0.0
ssS'797'
p516
(dp517
S'988'
p518
F0.0
sS'990'
p519
F0.0
sS'748'
p520
F0.0
sS'259'
p521
F0.0
sS'336'
p522
F0.0
sS'1254'
p523
F0.0
sS'181'
p524
F5.0
sS'340'
p525
F0.0
sS'327'
p526
F2.0
sS'257'
p527
F0.0
ssS'796'
p528
(dp529
S'606'
p530
F3.692247151145019
sS'342'
p531
F0.0
sS'717'
p532
F2.3980257883090075
sS'716'
p533
F0.0
sS'293'
p534
F0.0
sS'298'
p535
F4.0168092541677485
sS'810'
p536
F3.060753010578244
sS'294'
p537
F0.0
sS'815'
p538
F3.2721476682229538
sS'291'
p539
F4.3092322541174255
ssS'830'
p540
(dp541
S'692'
p542
F4.457173887059199
sS'696'
p543
F3.749853625467309
sS'22'
p544
F0.0
sS'210'
p545
F4.004355969665432
sS'211'
p546
F4.179679773181535
sS'29'
p547
F1.644928298126197
sS'661'
p548
F3.962132364632737
sS'498'
p549
F4.460291945912786
sS'126'
p550
F0.0
sS'134'
p551
F4.7787031521095225
ssS'794'
p552
(dp553
S'150'
p554
F4.0
sS'887'
p555
F0.0
sS'557'
p556
F0.0
sS'455'
p557
F0.0
sS'116'
p558
F5.0
sS'238'
p559
F0.0
sS'275'
p560
F5.0
sS'127'
p561
F4.999999999999999
sS'100'
p562
F0.0
sS'118'
p563
F0.0
ssS'793'
p564
(dp565
S'1142'
p566
F0.0
sS'150'
p567
F4.0
sS'742'
p568
F4.0
sS'597'
p569
F4.0
sS'628'
p570
F3.574329624915189
sS'456'
p571
F3.445301445539375
sS'117'
p572
F3.0
sS'273'
p573
F3.0
sS'276'
p574
F0.0
sS'458'
p575
F0.0
ssS'792'
p576
(dp577
S'591'
p578
F3.436098578516199
sS'151'
p579
F0.0
sS'742'
p580
F0.0
sS'595'
p581
F3.1449734207855866
sS'597'
p582
F0.0
sS'596'
p583
F0.0
sS'762'
p584
F3.470085796929647
sS'111'
p585
F0.0
sS'276'
p586
F3.0
sS'15'
p587
F0.0
ssS'834'
p588
(dp589
S'151'
p590
F0.0
sS'150'
p591
F0.0
sS'744'
p592
F0.0
sS'886'
p593
F0.0
sS'762'
p594
F3.299637802806368
sS'628'
p595
F0.0
sS'50'
p596
F5.0
sS'315'
p597
F0.0
sS'316'
p598
F4.4454832330650245
sS'117'
p599
F0.0
ssS'790'
p600
(dp601
S'216'
p602
F2.8813272736669497
sS'217'
p603
F3.658234594742063
sS'214'
p604
F3.3856726127767196
sS'215'
p605
F2.2268546014821684
sS'213'
p606
F3.4718582634531048
sS'210'
p607
F3.7079584856070964
sS'211'
p608
F3.2237640130728886
sS'762'
p609
F3.0454951006195063
sS'763'
p610
F3.481670061099796
sS'665'
p611
F0.0
ssS'838'
p612
(dp613
S'24'
p614
F0.0
sS'210'
p615
F4.478552671095672
sS'22'
p616
F0.0
sS'28'
p617
F0.0
sS'289'
p618
F0.0
sS'405'
p619
F0.0
sS'134'
p620
F0.0
sS'494'
p621
F4.165750904252357
sS'8'
p622
F0.0
sS'497'
p623
F0.0
ssS'839'
p624
(dp625
S'458'
p626
F0.0
sS'1085'
p627
F4.0
sS'319'
p628
F0.0
sS'333'
p629
F0.0
sS'864'
p630
F0.0
sS'258'
p631
F3.0
sS'130'
p632
F0.0
sS'111'
p633
F3.0
sS'276'
p634
F0.0
sS'127'
p635
F5.0
ssS'799'
p636
(dp637
S'319'
p638
F0.0
sS'1545'
p639
F0.0
sS'748'
p640
F0.0
sS'45'
p641
F5.0
sS'191'
p642
F0.0
sS'690'
p643
F0.0
sS'258'
p644
F0.0
sS'499'
p645
F4.0
sS'174'
p646
F4.0
sS'173'
p647
F0.0
ssS'798'
p648
(dp649
S'768'
p650
F4.0
sS'769'
p651
F3.3084589553292996
sS'210'
p652
F3.9506399451880263
sS'662'
p653
F4.0
sS'660'
p654
F2.0
sS'133'
p655
F2.975293192528582
sS'132'
p656
F3.807300133389598
sS'498'
p657
F3.5096291257908514
sS'228'
p658
F3.5950841609125517
sS'1102'
p659
F0.0
ssS'919'
p660
(dp661
S'217'
p662
F4.0
sS'690'
p663
F3.702170066537478
sS'20'
p664
F3.846914473485876
sS'21'
p665
F3.047460428010076
sS'22'
p666
F5.0
sS'23'
p667
F4.171331110597441
sS'218'
p668
F3.3177012006271434
sS'660'
p669
F3.459247717156494
sS'1'
p670
F5.000000000000001
sS'137'
p671
F0.0
ssS'918'
p672
(dp673
S'216'
p674
F3.5450549919991743
sS'213'
p675
F3.5147607985394864
sS'211'
p676
F3.5807164753718794
sS'664'
p677
F3.706202105404906
sS'42'
p678
F0.0
sS'1266'
p679
F0.0
sS'1265'
p680
F4.0
sS'660'
p681
F3.0
sS'133'
p682
F2.9291125828147324
sS'132'
p683
F3.780528137027835
ssS'915'
p684
(dp685
S'691'
p686
F0.0
sS'313'
p687
F0.0
sS'334'
p688
F0.0
sS'310'
p689
F2.2892868214765496
sS'1038'
p690
F0.0
sS'333'
p691
F0.0
sS'270'
p692
F0.0
sS'288'
p693
F0.0
sS'258'
p694
F0.0
sS'347'
p695
F2.0
ssS'914'
p696
(dp697
S'216'
p698
F0.0
sS'692'
p699
F0.0
sS'155'
p700
F0.0
sS'313'
p701
F0.0
sS'451'
p702
F2.0
sS'197'
p703
F3.0
sS'643'
p704
F0.0
sS'88'
p705
F0.0
sS'732'
p706
F5.0
sS'111'
p707
F2.0
ssS'917'
p708
(dp709
S'740'
p710
F3.2573269529583078
sS'150'
p711
F0.0
sS'25'
p712
F0.0
sS'763'
p713
F0.0
sS'628'
p714
F0.0
sg19
F0.0
sS'276'
p715
F0.0
sS'278'
p716
F0.0
sS'237'
p717
F0.0
sS'255'
p718
F0.0
ssS'916'
p719
(dp720
S'216'
p721
F4.030936701456213
sS'217'
p722
F3.7093026844444412
sS'214'
p723
F3.7299954118554566
sS'1268'
p724
F0.0
sS'212'
p725
F0.0
sS'213'
p726
F3.9810022689700295
sS'210'
p727
F3.3267609060715038
sS'211'
p728
F3.931616011873327
sS'762'
p729
F3.1500620471415166
sS'763'
p730
F0.0
ssS'911'
p731
(dp732
S'216'
p733
F0.0
sS'26'
p734
F0.0
sS'215'
p735
F0.0
sS'21'
p736
F0.0
sS'210'
p737
F4.0
sS'211'
p738
F4.087244559124802
sS'404'
p739
F4.223844662582144
sS'134'
p740
F4.137912918436877
sS'496'
p741
F3.3278816789076497
sS'548'
p742
F1.9788196407602316
ssS'910'
p743
(dp744
S'742'
p745
F2.641613174714918
sS'597'
p746
F0.0
sS'313'
p747
F0.0
sS'628'
p748
F0.0
sS'332'
p749
F2.3884812741117596
sS'357'
p750
F0.0
sS'117'
p751
F4.0
sS'273'
p752
F2.37348906421091
sS'137'
p753
F0.0
sS'134'
p754
F4.4461594497786825
ssS'913'
p755
(dp756
S'216'
p757
F4.066858895380662
sS'25'
p758
F0.0
sS'690'
p759
F0.0
sS'22'
p760
F4.57860512837305
sS'210'
p761
F3.4783438592467437
sS'28'
p762
F3.1321532122711706
sS'289'
p763
F0.0
sS'132'
p764
F4.016374361308561
sS'131'
p765
F0.0
sS'498'
p766
F4.029785729321291
ssS'912'
p767
(dp768
S'318'
p769
F0.0
sS'154'
p770
F0.0
sS'602'
p771
F4.254590995108008
sS'194'
p772
F0.0
sS'197'
p773
F0.0
sS'661'
p774
F3.6784412171692624
sS'192'
p775
F4.999999999999999
sS'132'
p776
F0.0
sS'152'
p777
F4.0
sS'238'
p778
F2.0
ssS'826'
p779
(dp780
S'768'
p781
F0.0
sS'22'
p782
F0.0
sS'210'
p783
F3.9316597858062647
sS'665'
p784
F0.0
sS'540'
p785
F3.2849462072991815
sS'29'
p786
F3.35375794990626
sS'288'
p787
F0.0
sS'526'
p788
F4.037705093315464
sS'403'
p789
F4.0
sS'227'
p790
F3.7906860190731737
ssS'825'
p791
(dp792
S'25'
p793
F0.0
sS'20'
p794
F1.0
sS'222'
p795
F2.0
sS'289'
p796
F0.0
sS'406'
p797
F3.1747419825953047
sS'405'
p798
F0.0
sS'130'
p799
F1.0
sS'137'
p800
F0.0
sS'546'
p801
F0.0
sS'491'
p802
F4.470008574854542
ssS'824'
p803
(dp804
S'289'
p805
F0.0
sS'319'
p806
F0.0
sS'989'
p807
F0.0
sS'991'
p808
F4.0
sS'322'
p809
F0.0
sS'748'
p810
F0.0
sS'304'
p811
F0.0
sS'245'
p812
F0.0
sS'323'
p813
F0.0
sS'259'
p814
F0.0
ssS'773'
p815
(dp816
S'216'
p817
F4.122940677977814
sS'217'
p818
F3.4876444331664547
sS'769'
p819
F3.0
sS'212'
p820
F0.0
sS'210'
p821
F3.2106444486807435
sS'665'
p822
F0.0
sS'127'
p823
F4.10261127222418
sS'218'
p824
F2.0
sS'27'
p825
F0.0
sS'24'
p826
F2.0
ssS'827'
p827
(dp828
S'690'
p829
F3.0
sS'748'
p830
F4.0
sS'312'
p831
F0.0
sS'331'
p832
F3.2274375754999043
sS'316'
p833
F0.0
sS'333'
p834
F3.0
sS'332'
p835
F3.0000000000000004
sS'289'
p836
F0.0
sS'313'
p837
F0.0
sS'272'
p838
F0.0
ssS'784'
p839
(dp840
S'690'
p841
F5.0
sS'313'
p842
F0.0
sS'312'
p843
F0.0
sS'310'
p844
F3.9078025742921025
sS'331'
p845
F4.0
sS'333'
p846
F0.0
sS'332'
p847
F0.0
sS'270'
p848
F0.0
sS'271'
p849
F0.0
sS'258'
p850
F0.0
ssS'785'
p851
(dp852
S'1050'
p853
F0.0
sS'318'
p854
F4.0
sS'886'
p855
F0.0
sS'748'
p856
F4.0
sS'661'
p857
F4.355348161329201
sS'152'
p858
F0.0
sS'137'
p859
F0.0
sS'69'
p860
F0.0
sS'496'
p861
F4.350088202348055
sS'174'
p862
F5.0
ssS'786'
p863
(dp864
S'692'
p865
F4.480601449951232
sS'216'
p866
F4.090278712538931
sS'210'
p867
F4.153416410891776
sS'211'
p868
F4.100277325253516
sS'133'
p869
F4.0
sS'1'
p870
F5.000000000000001
sS'132'
p871
F3.8957249521447697
sS'265'
p872
F4.009119837583223
sS'496'
p873
F4.327623996111989
sS'497'
p874
F4.0
ssS'787'
p875
(dp876
S'319'
p877
F0.0
sS'880'
p878
F1.0
sS'748'
p879
F3.0
sS'749'
p880
F3.0000000000000004
sS'311'
p881
F3.8724112559895834
sS'310'
p882
F3.622909846400915
sS'331'
p883
F3.6112852491346445
sS'333'
p884
F3.0667472853527484
sS'271'
p885
F0.0
sS'258'
p886
F0.0
ssS'780'
p887
(dp888
S'216'
p889
F0.0
sS'604'
p890
F3.1673637164339095
sS'318'
p891
F5.0
sS'199'
p892
F4.20130216491947
sS'603'
p893
F3.4733332700794266
sS'313'
p894
F0.0
sS'705'
p895
F4.449622550485657
sS'662'
p896
F0.0
sS'660'
p897
F0.0
sS'133'
p898
F4.0
ssS'781'
p899
(dp900
S'318'
p901
F5.0
sS'179'
p902
F3.487750855650941
sS'210'
p903
F4.391459458940721
sS'195'
p904
F0.0
sS'191'
p905
F4.67986946077777
sS'258'
p906
F0.0
sS'215'
p907
F3.566110411202214
sS'64'
p908
F5.0
sS'135'
p909
F4.431528899778122
sS'134'
p910
F4.842064304867475
ssS'904'
p911
(dp912
S'216'
p913
F3.9782661297147297
sS'155'
p914
F0.0
sS'709'
p915
F3.4771141768049527
sS'603'
p916
F4.4270263268676535
sS'747'
p917
F4.004646088845761
sS'762'
p918
F3.767438001442348
sS'451'
p919
F3.5051736829363427
sS'628'
p920
F3.9815178694906237
sS'553'
p921
F0.0
sS'117'
p922
F4.4360238896135105
ssS'783'
p923
(dp924
S'881'
p925
F0.0
sS'880'
p926
F4.0
sS'887'
p927
F0.0
sS'335'
p928
F5.0
sS'334'
p929
F0.0
sS'331'
p930
F4.689244557465772
sS'330'
p931
F3.9285480154473036
sS'333'
p932
F3.0
sS'271'
p933
F3.0
sS'258'
p934
F0.0
ssS'821'
p935
(dp936
S'151'
p937
F0.0
sS'459'
p938
F4.999999999999999
sS'742'
p939
F3.0
sS'318'
p940
F5.0
sS'213'
p941
F4.0
sS'597'
p942
F0.0
sS'763'
p943
F0.0
sS'707'
p944
F4.64939516830015
sS'132'
p945
F0.0
sS'117'
p946
F0.0
ssS'908'
p947
(dp948
S'151'
p949
F0.0
sS'216'
p950
F0.0
sS'318'
p951
F0.0
sS'558'
p952
F4.0
sS'603'
p953
F3.835678068681545
sS'156'
p954
F3.2060061610926445
sS'195'
p955
F0.0
sS'663'
p956
F0.0
sS'525'
p957
F3.434849001393129
sS'127'
p958
F0.0
ssS'909'
p959
(dp960
S'880'
p961
F0.0
sS'339'
p962
F3.0
sS'1121'
p963
F4.321526341889111
sS'707'
p964
F5.0
sS'289'
p965
F0.0
sS'116'
p966
F4.0
sS'275'
p967
F0.0
sS'744'
p968
F0.0
sS'86'
p969
F3.0
sS'170'
p970
F0.0
ssS'788'
p971
(dp972
S'322'
p973
F2.9999999999999996
sS'621'
p974
F2.3153079957129203
sS'215'
p975
F3.5329008940644626
sS'199'
p976
F3.878183219167794
sS'211'
p977
F3.885668742380226
sS'665'
p978
F0.0
sS'218'
p979
F3.348206508336928
sS'133'
p980
F3.7949904799268386
sS'130'
p981
F0.0
sS'164'
p982
F3.313181554281066
ssS'789'
p983
(dp984
S'591'
p985
F3.8011812898983504
sS'150'
p986
F3.0
sS'742'
p987
F0.0
sS'1161'
p988
F0.0
sS'741'
p989
F0.0
sS'762'
p990
F3.4707896162187737
sS'628'
p991
F3.4805930449064384
sS'137'
p992
F0.0
sS'276'
p993
F0.0
sS'100'
p994
F0.0
ssS'849'
p995
(dp996
S'27'
p997
F0.0
sS'625'
p998
F5.0
sS'288'
p999
F0.0
sS'197'
p1000
F0.0
sS'172'
p1001
F0.0
sS'133'
p1002
F0.0
sS'406'
p1003
F0.0
sS'234'
p1004
F0.0
sS'174'
p1005
F0.0
sS'118'
p1006
F0.0
ssS'848'
p1007
(dp1008
S'216'
p1009
F4.292893574492306
sS'214'
p1010
F5.0
sS'215'
p1011
F4.4452396129943
sS'210'
p1012
F4.554768368661291
sS'663'
p1013
F4.2317009201055376
sS'661'
p1014
F4.234919060387068
sS'133'
p1015
F4.41776086272675
sS'132'
p1016
F4.686192464762434
sS'498'
p1017
F4.413163924529154
sS'135'
p1018
F4.070595387119133
ssS'926'
p1019
(dp1020
S'289'
p1021
F0.0
sS'322'
p1022
F0.0
sS'300'
p1023
F0.0
sS'302'
p1024
F3.0000000000000004
sS'303'
p1025
F0.0
sS'315'
p1026
F0.0
sS'245'
p1027
F0.0
sS'262'
p1028
F0.0
sS'272'
p1029
F0.0
sS'269'
p1030
F0.0
ssS'772'
p1031
(dp1032
S'271'
p1033
F0.0
sS'313'
p1034
F5.0
sS'312'
p1035
F0.0
sS'310'
p1036
F3.7198156009275682
sS'331'
p1037
F3.719452608115118
sS'315'
p1038
F5.0
sS'332'
p1039
F3.0
sS'748'
p1040
F4.0
sS'258'
p1041
F0.0
sS'259'
p1042
F4.0
ssS'845'
p1043
(dp1044
S'308'
p1045
F3.0
sS'690'
p1046
F5.0
sS'313'
p1047
F0.0
sS'877'
p1048
F0.0
sS'311'
p1049
F2.2676156317167235
sS'310'
p1050
F2.040798176265621
sS'272'
p1051
F2.0
sS'346'
p1052
F2.0602672957455317
sS'340'
p1053
F0.0
sS'1399'
p1054
F4.0
ssS'927'
p1055
(dp1056
S'24'
p1057
F4.550556414766132
sS'217'
p1058
F5.0
sS'768'
p1059
F0.0
sS'210'
p1060
F3.640839167273996
sS'25'
p1061
F0.0
sS'763'
p1062
F5.0
sS'761'
p1063
F3.0
sS'28'
p1064
F3.486643380617946
sS'132'
p1065
F3.7957896085757716
sS'138'
p1066
F0.0
ssS'925'
p1067
(dp1068
S'217'
p1069
F0.0
sS'559'
p1070
F2.9999999999999996
sS'558'
p1071
F0.0
sS'323'
p1072
F0.0
sS'876'
p1073
F2.187822333541455
sS'218'
p1074
F3.5081445974178687
sS'332'
p1075
F0.0
sS'288'
p1076
F0.0
sS'5'
p1077
F3.0
sS'325'
p1078
F0.0
ssS'844'
p1079
(dp1080
S'216'
p1081
F4.005785426975954
sS'151'
p1082
F3.0
sS'318'
p1083
F4.273905415188186
sS'627'
p1084
F3.0
sS'154'
p1085
F3.68046096646137
sS'625'
p1086
F3.274922868291794
sS'195'
p1087
F0.0
sS'553'
p1088
F0.0
sS'919'
p1089
F0.0
sS'70'
p1090
F4.0
ssS'854'
p1091
(dp1092
S'216'
p1093
F3.9060033998648915
sS'322'
p1094
F3.0
sS'762'
p1095
F2.823067166541822
sS'664'
p1096
F3.4453570940905127
sS'133'
p1097
F3.6596551133492596
sS'132'
p1098
F3.8647009830237153
sS'498'
p1099
F3.881264851496722
sS'499'
p1100
F3.8084074274038895
sS'135'
p1101
F3.7020215740763307
sS'134'
p1102
F3.972041492604615
ssS'855'
p1103
(dp1104
S'855'
p1105
F0.0
sS'198'
p1106
F0.0
sS'45'
p1107
F0.0
sS'60'
p1108
F3.423488041731679
sS'919'
p1109
F0.0
sS'179'
p1110
F0.0
sS'165'
p1111
F0.0
sS'86'
p1112
F0.0
sS'171'
p1113
F4.0
sS'170'
p1114
F0.0
ssS'856'
p1115
(dp1116
S'270'
p1117
F0.0
sS'690'
p1118
F4.0
sS'313'
p1119
F5.0
sS'749'
p1120
F0.0
sS'310'
p1121
F2.8977805076591276
sS'316'
p1122
F0.0
sS'315'
p1123
F5.0
sS'322'
p1124
F2.8007909122308794
sS'748'
p1125
F4.0
sS'258'
p1126
F0.0
ssS'857'
p1127
(dp1128
S'24'
p1129
F0.0
sS'988'
p1130
F0.0
sS'20'
p1131
F0.0
sS'300'
p1132
F0.0
sS'258'
p1133
F0.0
sS'259'
p1134
F0.0
sS'275'
p1135
F0.0
sS'325'
p1136
F0.0
sS'321'
p1137
F0.0
sS'547'
p1138
F0.0
ssS'850'
p1139
(dp1140
S'742'
p1141
F5.0
sS'318'
p1142
F0.0
sS'210'
p1143
F5.0
sS'705'
p1144
F4.622796998334579
sS'196'
p1145
F0.0
sS'663'
p1146
F5.0
sS'50'
p1147
F5.0
sS'88'
p1148
F0.0
sS'82'
p1149
F0.0
sS'153'
p1150
F0.0
ssS'851'
p1151
(dp1152
S'693'
p1153
F4.353418992349171
sS'690'
p1154
F4.0
sS'27'
p1155
F0.0
sS'696'
p1156
F3.7612765396497365
sS'1143'
p1157
F0.0
sS'760'
p1158
F2.7075508959640957
sS'979'
p1159
F3.0
sS'132'
p1160
F4.635791807602359
sS'127'
p1161
F4.5265514926974895
sS'284'
p1162
F0.0
ssS'852'
p1163
(dp1164
S'151'
p1165
F0.0
sS'597'
p1166
F4.0
sS'969'
p1167
F0.0
sS'117'
p1168
F0.0
sS'259'
p1169
F0.0
sS'274'
p1170
F0.0
sS'264'
p1171
F2.9999999999999996
sS'252'
p1172
F0.0
sS'235'
p1173
F0.0
sS'250'
p1174
F0.0
ssS'853'
p1175
(dp1176
S'880'
p1177
F4.0
sS'887'
p1178
F0.0
sS'748'
p1179
F2.0
sS'334'
p1180
F0.0
sS'331'
p1181
F2.9721620360159853
sS'330'
p1182
F4.0
sS'333'
p1183
F1.9332527146472518
sS'332'
p1184
F1.9150536077949105
sS'270'
p1185
F0.0
sS'271'
p1186
F0.0
ssS'832'
p1187
(dp1188
S'25'
p1189
F0.0
sS'323'
p1190
F0.0
sS'876'
p1191
F3.0
sS'334'
p1192
F3.0
sS'873'
p1193
F0.0
sS'322'
p1194
F4.0
sS'748'
p1195
F0.0
sS'258'
p1196
F0.0
sS'288'
p1197
F0.0
sS'313'
p1198
F0.0
ssS'858'
p1199
(dp1200
S'690'
p1201
F4.0
sS'678'
p1202
F2.0
sS'754'
p1203
F0.0
sS'334'
p1204
F0.0
sS'331'
p1205
F3.0000000000000004
sS'333'
p1206
F0.0
sS'307'
p1207
F0.0
sS'289'
p1208
F0.0
sS'515'
p1209
F0.0
sS'293'
p1210
F0.0
ssS'859'
p1211
(dp1212
S'151'
p1213
F0.0
sS'458'
p1214
F0.0
sS'1326'
p1215
F0.0
sS'762'
p1216
F4.164503716652838
sS'763'
p1217
F4.0
sS'313'
p1218
F0.0
sS'111'
p1219
F3.0
sS'275'
p1220
F0.0
sS'276'
p1221
F0.0
sS'257'
p1222
F4.0
ssS'843'
p1223
(dp1224
S'216'
p1225
F2.65174915237819
sS'217'
p1226
F4.0
sS'214'
p1227
F3.0
sS'215'
p1228
F2.741684565139961
sS'210'
p1229
F2.9812010338832198
sS'211'
p1230
F3.0
sS'667'
p1231
F0.0
sS'665'
p1232
F3.0
sS'661'
p1233
F3.1187623364019106
sS'219'
p1234
F2.0
ssS'795'
p1235
(dp1236
S'217'
p1237
F3.0
sS'214'
p1238
F3.601855391725834
sS'21'
p1239
F2.7484590040529224
sS'210'
p1240
F3.229981032683689
sS'25'
p1241
F0.0
sS'28'
p1242
F3.369852410832267
sS'768'
p1243
F2.0
sS'219'
p1244
F0.0
sS'135'
p1245
F3.780998774576074
sS'91'
p1246
F0.0
ssS'753'
p1247
(dp1248
S'215'
p1249
F4.479626944183798
sS'199'
p1250
F4.019623551714301
sS'211'
p1251
F3.624267404159346
sS'195'
p1252
F1.0
sS'194'
p1253
F3.912834773875153
sS'316'
p1254
F0.0
sS'193'
p1255
F3.6827456514181094
sS'272'
p1256
F4.721001638670868
sS'347'
p1257
F3.1591753374418663
sS'89'
p1258
F0.0
ssS'902'
p1259
(dp1260
S'318'
p1261
F4.0928814750487374
sS'191'
p1262
F4.351793417015332
sS'333'
p1263
F3.0
sS'271'
p1264
F0.0
sS'258'
p1265
F2.0
sS'989'
p1266
F0.0
sS'275'
p1267
F4.637028344921187
sS'127'
p1268
F3.7905194401031803
sS'1016'
p1269
F0.0
sS'257'
p1270
F3.0
ssS'757'
p1271
(dp1272
S'24'
p1273
F3.209837194410358
sS'693'
p1274
F3.771387743297948
sS'27'
p1275
F0.0
sS'22'
p1276
F5.0
sS'210'
p1277
F3.514965215846819
sS'217'
p1278
F3.5546165271557038
sS'665'
p1279
F0.0
sS'28'
p1280
F3.7751564877425525
sS'227'
p1281
F3.46482494377898
sS'95'
p1282
F3.466062871487272
ssS'756'
p1283
(dp1284
S'22'
p1285
F0.0
sS'210'
p1286
F0.0
sS'1074'
p1287
F0.0
sS'1149'
p1288
F3.4078927137476978
sS'289'
p1289
F0.0
sS'404'
p1290
F3.8122503276470328
sS'403'
p1291
F0.0
sS'135'
p1292
F0.0
sS'138'
p1293
F0.0
sS'222'
p1294
F3.0
ssS'755'
p1295
(dp1296
S'881'
p1297
F2.0
sS'880'
p1298
F1.0
sS'887'
p1299
F0.0
sS'748'
p1300
F3.0
sS'311'
p1301
F3.748682335017238
sS'310'
p1302
F3.508344558134631
sS'331'
p1303
F3.296026719213066
sS'319'
p1304
F0.0
sS'271'
p1305
F0.0
sS'258'
p1306
F0.0
ssS'846'
p1307
(dp1308
S'1069'
p1309
F4.0
sS'199'
p1310
F4.4217482774643475
sS'198'
p1311
F4.185445870179852
sS'719'
p1312
F2.9192150037201965
sS'715'
p1313
F4.0
sS'663'
p1314
F3.9657689137288386
sS'1066'
p1315
F0.0
sS'810'
p1316
F3.2168195338549888
sS'294'
p1317
F0.0
sS'665'
p1318
F3.4196620834939577
ssS'833'
p1319
(dp1320
S'1143'
p1321
F3.6487819647264743
sS'211'
p1322
F0.0
sS'667'
p1323
F1.638013017427818
sS'665'
p1324
F0.0
sS'663'
p1325
F0.0
sS'218'
p1326
F0.0
sS'219'
p1327
F0.0
sS'653'
p1328
F4.39629290406847
sS'264'
p1329
F0.0
sS'164'
p1330
F0.0
ssS'759'
p1331
(dp1332
S'591'
p1333
F4.556441598845625
sS'24'
p1334
F0.0
sS'742'
p1335
F5.0
sS'748'
p1336
F5.0
sS'984'
p1337
F0.0
sS'332'
p1338
F0.0
sS'117'
p1339
F5.0
sS'275'
p1340
F0.0
sS'237'
p1341
F0.0
sS'257'
p1342
F5.0
ssS'758'
p1343
(dp1344
S'716'
p1345
F0.0
sS'715'
p1346
F4.540024548793639
sS'344'
p1347
F0.0
sS'345'
p1348
F5.0
sS'346'
p1349
F3.971157582061758
sS'347'
p1350
F3.8449131022086975
sS'340'
p1351
F3.0
sS'342'
p1352
F3.3805541838480084
sS'343'
p1353
F3.615309079191314
sS'810'
p1354
F3.4175674563278986
ssS'900'
p1355
(dp1356
S'458'
p1357
F0.0
sS'318'
p1358
F0.0
sS'744'
p1359
F0.0
sS'602'
p1360
F3.4298792732365557
sS'864'
p1361
F0.0
sS'661'
p1362
F2.6221583355357723
sS'117'
p1363
F0.0
sS'130'
p1364
F0.0
sS'137'
p1365
F4.0
sS'136'
p1366
F2.0
ssS'933'
p1367
(dp1368
S'216'
p1369
F2.9537669657493693
sS'214'
p1370
F0.0
sS'215'
p1371
F2.727541345942768
sS'210'
p1372
F3.719425460130097
sS'211'
p1373
F2.9920744379969366
sS'763'
p1374
F3.0
sS'665'
p1375
F2.0
sS'218'
p1376
F2.182569167142058
sS'219'
p1377
F2.0
sS'132'
p1378
F3.0000000000000004
ssS'901'
p1379
(dp1380
S'216'
p1381
F3.570564377036319
sS'768'
p1382
F4.0
sS'20'
p1383
F0.0
sS'210'
p1384
F4.487942685034134
sS'211'
p1385
F4.080204026104409
sS'662'
p1386
F0.0
sS'322'
p1387
F0.0
sS'498'
p1388
F4.279668311566059
sS'135'
p1389
F5.0
sS'228'
p1390
F4.0307136794682235
ssS'932'
p1391
(dp1392
S'1305'
p1393
F0.0
sS'212'
p1394
F0.0
sS'213'
p1395
F0.0
sS'210'
p1396
F4.0
sS'211'
p1397
F0.0
sS'665'
p1398
F0.0
sS'1149'
p1399
F4.225112590551896
sS'663'
p1400
F0.0
sS'1266'
p1401
F0.0
sS'199'
p1402
F5.0
ssS'906'
p1403
(dp1404
S'740'
p1405
F3.802921939450778
sS'742'
p1406
F4.0
sS'744'
p1407
F0.0
sS'628'
p1408
F3.0
sS'270'
p1409
F0.0
sS'117'
p1410
F0.0
sS'273'
p1411
F3.0
sS'276'
p1412
F0.0
sS'277'
p1413
F0.0
sS'237'
p1414
F0.0
ssS'931'
p1415
(dp1416
S'459'
p1417
F3.89101558646762
sS'744'
p1418
F0.0
sS'313'
p1419
F0.0
sS'312'
p1420
F0.0
sS'310'
p1421
F5.0
sS'316'
p1422
F4.634922312959926
sS'333'
p1423
F0.0
sS'258'
p1424
F0.0
sS'116'
p1425
F4.0
sS'137'
p1426
F0.0
ssS'842'
p1427
(dp1428
S'344'
p1429
F0.0
sS'886'
p1430
F0.0
sS'313'
p1431
F0.0
sS'749'
p1432
F4.0
sS'874'
p1433
F0.0
sS'315'
p1434
F4.0
sS'270'
p1435
F0.0
sS'288'
p1436
F0.0
sS'258'
p1437
F0.0
sS'340'
p1438
F0.0
ssS'869'
p1439
(dp1440
S'151'
p1441
F0.0
sS'596'
p1442
F1.0
sS'312'
p1443
F0.0
sS'310'
p1444
F0.0
sS'315'
p1445
F4.0
sS'116'
p1446
F0.0
sS'275'
p1447
F0.0
sS'276'
p1448
F0.0
sS'253'
p1449
F0.0
sS'100'
p1450
F0.0
ssS'868'
p1451
(dp1452
S'216'
p1453
F4.0
sS'217'
p1454
F2.0
sS'214'
p1455
F4.0
sS'210'
p1456
F2.6361324581065215
sS'211'
p1457
F1.6613829586646243
sS'762'
p1458
F2.6786699505784823
sS'662'
p1459
F2.1868999254770953
sS'218'
p1460
F2.2646247080718545
sS'219'
p1461
F4.0
sS'127'
p1462
F5.0
ssS'930'
p1463
(dp1464
S'151'
p1465
F0.0
sS'153'
p1466
F0.0
sS'763'
p1467
F1.0
sS'455'
p1468
F0.0
sS'117'
p1469
F4.135206038947606
sS'116'
p1470
F3.248198120726486
sS'238'
p1471
F0.0
sS'275'
p1472
F3.4714867911718703
sS'265'
p1473
F2.6874200088171447
sS'257'
p1474
F0.0
ssS'782'
p1475
(dp1476
S'1142'
p1477
F0.0
sS'1143'
p1478
F3.6111253338631837
sS'690'
p1479
F2.2413588391876647
sS'691'
p1480
F0.0
sS'1300'
p1481
F2.380401286978637
sS'1144'
p1482
F0.0
sS'1302'
p1483
F3.0
sS'127'
p1484
F2.9999999999999996
sS'294'
p1485
F0.0
sS'538'
p1486
F3.5640419298286083
ssS'861'
p1487
(dp1488
S'1227'
p1489
F0.0
sS'740'
p1490
F0.0
sS'319'
p1491
F0.0
sS'213'
p1492
F0.0
sS'1148'
p1493
F3.5869302122048956
sS'116'
p1494
F0.0
sS'275'
p1495
F0.0
sS'179'
p1496
F0.0
sS'70'
p1497
F0.0
sS'83'
p1498
F0.0
ssS'937'
p1499
(dp1500
S'988'
p1501
F0.0
sS'50'
p1502
F0.0
sS'258'
p1503
F4.0
sS'116'
p1504
F3.0000000000000004
sS'137'
p1505
F0.0
sS'275'
p1506
F5.0
sS'225'
p1507
F1.0
sS'237'
p1508
F4.0
sS'100'
p1509
F0.0
sS'236'
p1510
F0.0
ssS'863'
p1511
(dp1512
S'690'
p1513
F4.0
sS'691'
p1514
F1.565552650453225
sS'344'
p1515
F4.388900933192655
sS'288'
p1516
F0.0
sS'346'
p1517
F0.0
sS'347'
p1518
F1.7714411430387325
sS'340'
p1519
F0.0
sS'1679'
p1520
F2.2891254130200873
sS'342'
p1521
F0.0
sS'343'
p1522
F4.0
ssS'862'
p1523
(dp1524
S'216'
p1525
F5.0
sS'214'
p1526
F0.0
sS'215'
p1527
F0.0
sS'210'
p1528
F5.0
sS'211'
p1529
F0.0
sS'767'
p1530
F0.0
sS'132'
p1531
F0.0
sS'498'
p1532
F4.6640827867625925
sS'135'
p1533
F0.0
sS'495'
p1534
F4.45743167653744
ssS'865'
p1535
(dp1536
S'627'
p1537
F2.0
sS'597'
p1538
F1.8576787382891782
sS'763'
p1539
F0.0
sS'455'
p1540
F4.0
sS'456'
p1541
F1.0
sS'271'
p1542
F0.0
sS'258'
p1543
F0.0
sS'588'
p1544
F1.0
sS'117'
p1545
F0.0
sS'685'
p1546
F2.0
ssS'864'
p1547
(dp1548
S'216'
p1549
F4.306001773882485
sS'217'
p1550
F3.4561386268987606
sS'214'
p1551
F3.776742871391426
sS'215'
p1552
F4.537914335673687
sS'210'
p1553
F4.223424724801053
sS'1303'
p1554
F0.0
sS'665'
p1555
F4.0
sS'663'
p1556
F4.454628810166291
sS'768'
p1557
F0.0
sS'474'
p1558
F4.620486205276018
ssS'867'
p1559
(dp1560
S'216'
p1561
F0.0
sS'690'
p1562
F0.0
sS'210'
p1563
F5.0
sS'211'
p1564
F0.0
sS'660'
p1565
F2.0
sS'132'
p1566
F0.0
sS'498'
p1567
F5.0
sS'135'
p1568
F0.0
sS'134'
p1569
F4.999999999999999
sS'496'
p1570
F0.0
ssS'866'
p1571
(dp1572
S'882'
p1573
F0.0
sS'900'
p1574
F2.0
sS'887'
p1575
F2.0
sS'896'
p1576
F2.5900555791450883
sS'300'
p1577
F0.0
sS'302'
p1578
F3.0000000000000004
sS'303'
p1579
F2.0
sS'305'
p1580
F2.0
sS'347'
p1581
F0.0
sS'319'
p1582
F0.0
ssS'841'
p1583
(dp1584
S'322'
p1585
F0.0
sS'751'
p1586
F0.0
sS'748'
p1587
F0.0
sS'888'
p1588
F4.79328868231784
sS'331'
p1589
F3.0
sS'333'
p1590
F3.0
sS'270'
p1591
F0.0
sS'271'
p1592
F3.0
sS'272'
p1593
F0.0
sS'313'
p1594
F0.0
ssS'935'
p1595
(dp1596
S'742'
p1597
F4.0
sS'620'
p1598
F4.0
sS'597'
p1599
F0.0
sS'313'
p1600
F0.0
sS'117'
p1601
F0.0
sS'274'
p1602
F4.0
sS'281'
p1603
F0.0
sS'237'
p1604
F0.0
sS'257'
p1605
F0.0
sS'255'
p1606
F0.0
ssS'934'
p1607
(dp1608
S'216'
p1609
F4.286878448408349
sS'212'
p1610
F0.0
sS'213'
p1611
F4.339198123311701
sS'210'
p1612
F3.7802745262278057
sS'211'
p1613
F3.854297716586439
sS'664'
p1614
F3.6730143015482355
sS'663'
p1615
F3.6107653695886595
sS'661'
p1616
F3.5548537182562803
sS'660'
p1617
F4.540752282843505
sS'66'
p1618
F4.0
ssS'936'
p1619
(dp1620
S'24'
p1621
F3.310304164811204
sS'25'
p1622
F0.0
sS'20'
p1623
F4.433730237240596
sS'1079'
p1624
F0.0
sS'766'
p1625
F3.8657499436747274
sS'818'
p1626
F5.0
sS'1370'
p1627
F4.14302266502732
sS'346'
p1628
F3.6358518492221528
sS'340'
p1629
F1.0
sS'137'
p1630
F0.0
ssS'883'
p1631
(dp1632
S'216'
p1633
F3.9247985428867214
sS'212'
p1634
F0.0
sS'213'
p1635
F4.120821323511665
sS'210'
p1636
F3.4618872100644436
sS'211'
p1637
F4.017426701585792
sS'1131'
p1638
F5.0
sS'952'
p1639
F4.0
sS'661'
p1640
F4.321960019916982
sS'228'
p1641
F3.9147098070860196
sS'665'
p1642
F0.0
ssS'882'
p1643
(dp1644
S'216'
p1645
F4.612937002547243
sS'215'
p1646
F4.861438627934898
sS'210'
p1647
F4.51890399269615
sS'211'
p1648
F4.631551329617943
sS'662'
p1649
F0.0
sS'660'
p1650
F3.540752282843506
sS'133'
p1651
F4.999999999999999
sS'132'
p1652
F4.803685151798612
sS'131'
p1653
F3.0
sS'135'
p1654
F4.756371229203195
ssS'881'
p1655
(dp1656
S'216'
p1657
F3.603024770081241
sS'217'
p1658
F3.087722746202481
sS'214'
p1659
F3.4355158715930956
sS'215'
p1660
F3.8882956780905755
sS'763'
p1661
F0.0
sS'663'
p1662
F4.504917725765307
sS'768'
p1663
F3.0
sS'218'
p1664
F3.5295737842943335
sS'133'
p1665
F3.5352450938678994
sS'575'
p1666
F1.9395641742316398
ssS'880'
p1667
(dp1668
S'1496'
p1669
F2.8862714445849678
sS'719'
p1670
F2.6071516175826326
sS'818'
p1671
F0.0
sS'346'
p1672
F3.7889662400822623
sS'347'
p1673
F3.626355897288132
sS'298'
p1674
F3.7753075726684377
sS'810'
p1675
F2.3721953538614913
sS'342'
p1676
F2.8360973070706565
sS'348'
p1677
F3.905295078175404
sS'815'
p1678
F3.3100866163817253
ssS'887'
p1679
(dp1680
S'24'
p1681
F4.469815441485636
sS'768'
p1682
F0.0
sS'210'
p1683
F4.055239798629562
sS'763'
p1684
F4.0
sS'760'
p1685
F2.526267439737783
sS'218'
p1686
F4.011066036134112
sS'228'
p1687
F3.779717233937424
sS'164'
p1688
F3.8061026152068513
sS'496'
p1689
F4.2943747473052465
sS'491'
p1690
F3.8143047299765245
ssS'886'
p1691
(dp1692
S'216'
p1693
F3.546701597272091
sS'217'
p1694
F3.693133174778887
sS'214'
p1695
F3.650945896325223
sS'212'
p1696
F0.0
sS'1303'
p1697
F0.0
sS'762'
p1698
F3.41322535767592
sS'761'
p1699
F5.0
sS'663'
p1700
F4.11099671227154
sS'218'
p1701
F3.342567224381583
sS'132'
p1702
F4.348868701199275
ssS'885'
p1703
(dp1704
S'216'
p1705
F3.742413083195495
sS'25'
p1706
F0.0
sS'213'
p1707
F3.0
sS'210'
p1708
F3.8625702817491345
sS'662'
p1709
F0.0
sS'28'
p1710
F3.90755594542543
sS'29'
p1711
F2.6760225741000543
sS'660'
p1712
F4.056331536508367
sS'1221'
p1713
F0.0
sS'135'
p1714
F3.805505187486781
ssS'884'
p1715
(dp1716
S'212'
p1717
F0.0
sS'198'
p1718
F5.0
sS'258'
p1719
F0.0
sS'116'
p1720
F0.0
sS'275'
p1721
F0.0
sS'179'
p1722
F0.0
sS'127'
p1723
F0.0
sS'269'
p1724
F0.0
sS'86'
p1725
F5.0
sS'213'
p1726
F0.0
ssS'942'
p1727
(dp1728
S'216'
p1729
F4.484206006737489
sS'604'
p1730
F4.524711041467637
sS'607'
p1731
F4.442914924694467
sS'318'
p1732
F4.7980289534528735
sS'1221'
p1733
F0.0
sS'313'
p1734
F5.0
sS'1204'
p1735
F4.078809991775488
sS'197'
p1736
F4.743492294993216
sS'272'
p1737
F4.763472257714764
sS'265'
p1738
F4.0
ssS'889'
p1739
(dp1740
S'1142'
p1741
F4.4551549018894026
sS'217'
p1742
F3.0000000000000004
sS'212'
p1743
F0.0
sS'210'
p1744
F3.373100324459948
sS'211'
p1745
F3.727517124591506
sS'762'
p1746
F3.5356756834154015
sS'1262'
p1747
F0.0
sS'664'
p1748
F3.7473467615332634
sS'1267'
p1749
F3.0
sS'219'
p1750
F0.0
ssS'888'
p1751
(dp1752
S'869'
p1753
F0.0
sS'631'
p1754
F0.0
sS'153'
p1755
F0.0
sS'202'
p1756
F0.0
sS'792'
p1757
F5.0
sS'762'
p1758
F0.0
sS'191'
p1759
F4.0
sS'535'
p1760
F0.0
sS'180'
p1761
F0.0
sS'274'
p1762
F0.0
ssS'840'
p1763
(dp1764
S'216'
p1765
F4.051033919478357
sS'215'
p1766
F4.344628082446732
sS'199'
p1767
F4.4098400354492755
sS'213'
p1768
F4.473319410221254
sS'210'
p1769
F4.046246939091819
sS'664'
p1770
F4.183942570676738
sS'663'
p1771
F4.177406446999452
sS'1266'
p1772
F0.0
sS'525'
p1773
F4.453434150799424
sS'212'
p1774
F0.0
ssS'905'
p1775
(dp1776
S'591'
p1777
F3.4225384458657704
sS'150'
p1778
F0.0
sS'742'
p1779
F3.232593170277752
sS'748'
p1780
F3.0
sS'319'
p1781
F0.0
sS'333'
p1782
F0.0
sS'313'
p1783
F0.0
sS'258'
p1784
F3.0
sS'116'
p1785
F4.0
sS'137'
p1786
F0.0
ssS'878'
p1787
(dp1788
S'216'
p1789
F3.522626355602731
sS'215'
p1790
F2.878201955518697
sS'212'
p1791
F0.0
sS'213'
p1792
F3.4547535868473487
sS'1149'
p1793
F3.699761562726774
sS'663'
p1794
F3.1180075642968514
sS'662'
p1795
F3.0
sS'137'
p1796
F0.0
sS'136'
p1797
F3.780757206901933
sS'496'
p1798
F3.7264194082225037
ssS'879'
p1799
(dp1800
S'151'
p1801
F0.0
sS'597'
p1802
F3.0000000000000004
sS'596'
p1803
F0.0
sS'763'
p1804
F0.0
sS'117'
p1805
F0.0
sS'111'
p1806
F0.0
sS'276'
p1807
F0.0
sS'237'
p1808
F0.0
sS'118'
p1809
F0.0
sS'255'
p1810
F0.0
ssS'876'
p1811
(dp1812
S'604'
p1813
F0.0
sS'318'
p1814
F0.0
sS'878'
p1815
F0.0
sS'48'
p1816
F0.0
sS'19'
p1817
F0.0
sS'22'
p1818
F0.0
sS'289'
p1819
F0.0
sS'531'
p1820
F0.0
sS'523'
p1821
F0.0
sS'174'
p1822
F0.0
ssS'877'
p1823
(dp1824
S'216'
p1825
F0.0
sS'584'
p1826
F0.0
sS'155'
p1827
F0.0
sS'748'
p1828
F0.0
sS'451'
p1829
F0.0
sS'197'
p1830
F0.0
sS'702'
p1831
F0.0
sS'60'
p1832
F4.152243046464672
sS'271'
p1833
F3.0
sS'228'
p1834
F0.0
ssS'874'
p1835
(dp1836
S'150'
p1837
F0.0
sS'20'
p1838
F0.0
sS'748'
p1839
F0.0
sS'197'
p1840
F0.0
sS'191'
p1841
F0.0
sS'182'
p1842
F0.0
sS'116'
p1843
F4.0
sS'137'
p1844
F0.0
sS'275'
p1845
F0.0
sS'276'
p1846
F0.0
ssS'754'
p1847
(dp1848
S'459'
p1849
F3.3066241097975353
sS'742'
p1850
F0.0
sS'744'
p1851
F3.0
sS'117'
p1852
F0.0
sS'273'
p1853
F0.0
sS'276'
p1854
F4.0
sS'595'
p1855
F4.0
sS'237'
p1856
F0.0
sS'118'
p1857
F0.0
sS'255'
p1858
F0.0
ssS'872'
p1859
(dp1860
S'591'
p1861
F3.495437548105886
sS'151'
p1862
F0.0
sS'742'
p1863
F5.0
sS'893'
p1864
F3.0
sS'597'
p1865
F4.0
sS'1165'
p1866
F0.0
sS'748'
p1867
F3.0
sS'763'
p1868
F5.0
sS'310'
p1869
F3.414372306223619
sS'864'
p1870
F3.4644555960573418
ssS'873'
p1871
(dp1872
S'750'
p1873
F0.0
sS'339'
p1874
F0.0
sS'879'
p1875
F4.0
sS'300'
p1876
F0.0
sS'875'
p1877
F0.0
sS'289'
p1878
F0.0
sS'313'
p1879
F0.0
sS'259'
p1880
F0.0
sS'328'
p1881
F0.0
sS'348'
p1882
F4.0
ssS'870'
p1883
(dp1884
S'216'
p1885
F3.8907037186397626
sS'210'
p1886
F3.4492542005433093
sS'211'
p1887
F3.908839748111236
sS'763'
p1888
F4.0
sS'45'
p1889
F4.106729782139174
sS'663'
p1890
F4.05516192916562
sS'608'
p1891
F3.608413161144974
sS'218'
p1892
F3.1264922117153278
sS'219'
p1893
F4.0
sS'132'
p1894
F4.002235611785461
ssS'871'
p1895
(dp1896
S'216'
p1897
F3.0488540189596023
sS'690'
p1898
F3.0
sS'27'
p1899
F0.0
sS'213'
p1900
F3.2408394264563087
sS'210'
p1901
F4.152780408777357
sS'22'
p1902
F0.0
sS'1072'
p1903
F0.0
sS'662'
p1904
F0.0
sS'289'
p1905
F0.0
sS'345'
p1906
F0.0
ssS'890'
p1907
(dp1908
S'214'
p1909
F0.0
sS'215'
p1910
F0.0
sS'210'
p1911
F4.311178824314286
sS'211'
p1912
F0.0
sS'667'
p1913
F0.0
sS'1149'
p1914
F2.8745808330361142
sS'663'
p1915
F4.999999999999999
sS'662'
p1916
F2.384514095151441
sS'660'
p1917
F4.0
sS'133'
p1918
F0.0
ssS'891'
p1919
(dp1920
S'591'
p1921
F0.0
sS'459'
p1922
F4.868957409235167
sS'742'
p1923
F0.0
sS'595'
p1924
F0.0
sS'597'
p1925
F4.0
sS'313'
p1926
F0.0
sS'1028'
p1927
F0.0
sS'117'
p1928
F0.0
sS'116'
p1929
F0.0
sS'111'
p1930
F0.0
ssS'892'
p1931
(dp1932
S'216'
p1933
F4.74349323893787
sS'214'
p1934
F3.752116409339789
sS'215'
p1935
F4.084150130879339
sS'213'
p1936
F4.513014209844744
sS'210'
p1937
F4.031552682071885
sS'763'
p1938
F4.0
sS'760'
p1939
F2.0
sS'663'
p1940
F4.320525434240397
sS'768'
p1941
F0.0
sS'661'
p1942
F4.667868204623033
ssS'893'
p1943
(dp1944
S'151'
p1945
F0.0
sS'597'
p1946
F0.0
sS'50'
p1947
F5.0
sS'819'
p1948
F2.4583958692458663
sS'117'
p1949
F0.0
sS'259'
p1950
F2.7343934779105963
sS'531'
p1951
F4.17115773959777
sS'235'
p1952
F0.0
sS'69'
p1953
F0.0
sS'237'
p1954
F0.0
ssS'894'
p1955
(dp1956
S'1142'
p1957
F4.0
sS'25'
p1958
F0.0
sS'690'
p1959
F4.239860705497481
sS'212'
p1960
F0.0
sS'213'
p1961
F4.3041666745556215
sS'875'
p1962
F4.0
sS'322'
p1963
F2.719444990146109
sS'137'
p1964
F0.0
sS'134'
p1965
F4.322831785867085
sS'166'
p1966
F3.936823316177922
ssS'895'
p1967
(dp1968
S'151'
p1969
F0.0
sS'13'
p1970
F0.0
sS'597'
p1971
F0.0
sS'885'
p1972
F0.0
sS'748'
p1973
F4.0
sS'301'
p1974
F0.0
sS'50'
p1975
F5.0
sS'742'
p1976
F0.0
sS'283'
p1977
F3.9740962391045156
sS'100'
p1978
F0.0
ssS'896'
p1979
(dp1980
S'591'
p1981
F3.279510076005126
sS'199'
p1982
F3.8447356151689696
sS'719'
p1983
F1.427475588380917
sS'715'
p1984
F2.0
sS'299'
p1985
F0.0
sS'713'
p1986
F4.216651774958967
sS'710'
p1987
F2.9974754098084477
sS'343'
p1988
F3.0000000000000004
sS'810'
p1989
F2.2193927501601336
sS'291'
p1990
F2.856931952181915
ssS'897'
p1991
(dp1992
S'214'
p1993
F3.400408827507852
sS'215'
p1994
F4.288722917071017
sS'210'
p1995
F4.092692872498402
sS'211'
p1996
F4.098360700927101
sS'763'
p1997
F4.481670061099797
sS'760'
p1998
F3.586872811604747
sS'660'
p1999
F2.0
sS'133'
p2000
F4.028664973672909
sS'132'
p2001
F3.772319914413055
sS'498'
p2002
F4.085054482211381
ssS'898'
p2003
(dp2004
S'319'
p2005
F0.0
sS'748'
p2006
F0.0
sS'334'
p2007
F3.5641966268192125
sS'310'
p2008
F0.0
sS'316'
p2009
F0.0
sS'315'
p2010
F0.0
sS'270'
p2011
F4.0
sS'271'
p2012
F0.0
sS'272'
p2013
F0.0
sS'313'
p2014
F0.0
ssS'899'
p2015
(dp2016
S'216'
p2017
F3.7376599808477216
sS'214'
p2018
F4.0
sS'213'
p2019
F4.101029691666933
sS'663'
p2020
F4.074479369326856
sS'218'
p2021
F3.396098245323006
sS'660'
p2022
F4.0
sS'133'
p2023
F3.48400943213511
sS'498'
p2024
F4.047871811456223
sS'499'
p2025
F3.8662954169948502
sS'135'
p2026
F4.0
ssS'779'
p2027
(dp2028
S'596'
p2029
F0.0
sS'195'
p2030
F0.0
sS'50'
p2031
F5.0
sS'117'
p2032
F0.0
sS'258'
p2033
F0.0
sS'111'
p2034
F0.0
sS'275'
p2035
F0.0
sS'243'
p2036
F0.0
sS'252'
p2037
F0.0
sS'235'
p2038
F0.0
ssS'778'
p2039
(dp2040
S'216'
p2041
F3.623600593843079
sS'150'
p2042
F4.308662972268225
sS'154'
p2043
F3.3655292608082785
sS'157'
p2044
F3.575683564663132
sS'195'
p2045
F0.0
sS'451'
p2046
F1.0
sS'197'
p2047
F3.349552894718971
sS'196'
p2048
F2.961119120084902
sS'550'
p2049
F3.6929099800524514
sS'193'
p2050
F2.6689517574963575
ssS'831'
p2051
(dp2052
S'591'
p2053
F3.3967872222330957
sS'150'
p2054
F2.9999999999999996
sS'742'
p2055
F3.0
sS'603'
p2056
F4.783234105662944
sS'741'
p2057
F0.0
sS'748'
p2058
F4.0
sS'749'
p2059
F0.0
sS'197'
p2060
F3.694721780341989
sS'331'
p2061
F3.4538877317089813
sS'316'
p2062
F0.0
ssS'836'
p2063
(dp2064
S'216'
p2065
F0.0
sS'880'
p2066
F0.0
sS'603'
p2067
F5.0
sS'663'
p2068
F0.0
sS'192'
p2069
F5.000000000000001
sS'289'
p2070
F0.0
sS'258'
p2071
F0.0
sS'318'
p2072
F0.0
sS'89'
p2073
F0.0
sS'185'
p2074
F0.0
ssS'837'
p2075
(dp2076
S'740'
p2077
F4.061202770284803
sS'151'
p2078
F0.0
sS'596'
p2079
F0.0
sS'762'
p2080
F3.7992305743864225
sS'763'
p2081
F0.0
sS'628'
p2082
F3.7379542783391786
sS'258'
p2083
F3.0
sS'274'
p2084
F3.6717417821851033
sS'275'
p2085
F0.0
sS'276'
p2086
F0.0
ssS'791'
p2087
(dp2088
S'322'
p2089
F0.0
sS'319'
p2090
F0.0
sS'748'
p2091
F3.0
sS'259'
p2092
F0.0
sS'331'
p2093
F4.0143845537987595
sS'332'
p2094
F3.0
sS'289'
p2095
F0.0
sS'288'
p2096
F0.0
sS'181'
p2097
F5.0
sS'275'
p2098
F0.0
ssS'835'
p2099
(dp2100
S'216'
p2101
F0.0
sS'215'
p2102
F5.0
sS'210'
p2103
F0.0
sS'660'
p2104
F4.0
sS'133'
p2105
F0.0
sS'132'
p2106
F4.2395629034280375
sS'131'
p2107
F4.162212626237371
sS'499'
p2108
F3.245389696009677
sS'135'
p2109
F5.0
sS'134'
p2110
F5.0
ssS'903'
p2111
(dp2112
S'1142'
p2113
F4.530072062029534
sS'693'
p2114
F0.0
sS'214'
p2115
F0.0
sS'696'
p2116
F2.4744907077293488
sS'210'
p2117
F0.0
sS'23'
p2118
F4.456819408990103
sS'211'
p2119
F0.0
sS'763'
p2120
F0.0
sS'664'
p2121
F4.013746432975705
sS'1073'
p2122
F3.725670558500739
ssS'943'
p2123
(dp2124
S'216'
p2125
F4.320218478372344
sS'217'
p2126
F0.0
sS'215'
p2127
F3.1773624412918013
sS'468'
p2128
F2.4539266370948463
sS'210'
p2129
F3.81937468611837
sS'763'
p2130
F5.0
sS'218'
p2131
F3.5023099279574814
sS'765'
p2132
F0.0
sS'132'
p2133
F4.267674721577764
sS'139'
p2134
F1.736154501150286
ssS'940'
p2135
(dp2136
S'692'
p2137
F3.343173290958243
sS'216'
p2138
F0.0
sS'215'
p2139
F0.0
sS'213'
p2140
F4.130898559243166
sS'289'
p2141
F0.0
sS'347'
p2142
F4.0
sS'137'
p2143
F3.0
sS'4'
p2144
F3.4294462802846124
sS'343'
p2145
F0.0
sg622
F0.0
ssS'941'
p2146
(dp2147
S'763'
p2148
F0.0
sS'455'
p2149
F0.0
sg19
F0.0
sS'258'
p2150
F0.0
sS'273'
p2151
F0.0
sS'919'
p2152
F0.0
sS'7'
p2153
F0.0
sS'181'
p2154
F0.0
sS'257'
p2155
F0.0
sS'408'
p2156
F0.0
ssS'809'
p2157
(dp2158
S'1025'
p2159
F0.0
sS'322'
p2160
F0.0
sS'319'
p2161
F0.0
sS'678'
p2162
F0.0
sS'313'
p2163
F0.0
sS'302'
p2164
F5.0
sS'331'
p2165
F3.0
sS'245'
p2166
F0.0
sS'300'
p2167
F0.0
sS'258'
p2168
F0.0
ssS'808'
p2169
(dp2170
S'271'
p2171
F0.0
sS'748'
p2172
F5.0
sS'312'
p2173
F0.0
sS'875'
p2174
F0.0
sS'872'
p2175
F0.0
sS'333'
p2176
F0.0
sS'332'
p2177
F3.7330507085372715
sS'270'
p2178
F0.0
sS'313'
p2179
F0.0
sS'288'
p2180
F0.0
ssS'875'
p2181
(dp2182
S'692'
p2183
F0.0
sS'213'
p2184
F4.0
sS'22'
p2185
F4.999999999999999
sS'23'
p2186
F4.24277560879765
sS'211'
p2187
F0.0
sS'133'
p2188
F4.0
sS'131'
p2189
F4.548096891576674
sS'135'
p2190
F4.499773812257319
sS'134'
p2191
F4.0
sS'496'
p2192
F0.0
ssS'803'
p2193
(dp2194
S'988'
p2195
F0.0
sS'887'
p2196
F3.0
sS'338'
p2197
F0.0
sS'748'
p2198
F0.0
sS'311'
p2199
F5.0
sS'322'
p2200
F0.0
sS'271'
p2201
F0.0
sS'259'
p2202
F0.0
sS'264'
p2203
F0.0
sS'339'
p2204
F0.0
ssS'802'
p2205
(dp2206
S'200'
p2207
F4.357867110301604
sS'769'
p2208
F0.0
sS'559'
p2209
F3.0
sS'669'
p2210
F2.3614856334234644
sS'217'
p2211
F3.0
sS'748'
p2212
F4.0
sS'194'
p2213
F3.7065795696116965
sS'760'
p2214
F3.7060675119498567
sS'196'
p2215
F3.6365868222500524
sS'573'
p2216
F3.0
ssS'801'
p2217
(dp2218
S'881'
p2219
F2.0
sS'288'
p2220
F0.0
sS'313'
p2221
F0.0
sS'333'
p2222
F4.0
sS'332'
p2223
F0.0
sS'271'
p2224
F0.0
sS'259'
p2225
F2.9636347943668455
sS'326'
p2226
F0.0
sS'343'
p2227
F3.44290271238918
sS'328'
p2228
F4.0
ssS'800'
p2229
(dp2230
S'118'
p2231
F0.0
sS'25'
p2232
F0.0
sS'742'
p2233
F0.0
sS'597'
p2234
F3.0000000000000004
sS'457'
p2235
F0.0
sS'289'
p2236
F0.0
sS'275'
p2237
F0.0
sS'276'
p2238
F0.0
sS'237'
p2239
F0.0
sS'257'
p2240
F0.0
ssS'807'
p2241
(dp2242
S'318'
p2243
F4.104221366596206
sS'210'
p2244
F4.607711461035247
sS'211'
p2245
F4.004686570059311
sS'133'
p2246
F3.60155752556329
sS'132'
p2247
F4.275816108988638
sS'498'
p2248
F4.175434815290543
sS'136'
p2249
F4.53237185257957
sS'135'
p2250
F3.6317359351171294
sS'495'
p2251
F3.9290807974302924
sS'139'
p2252
F3.592076315288784
ssS'806'
p2253
(dp2254
S'216'
p2255
F4.366489756167244
sS'24'
p2256
F3.275354644990243
sS'690'
p2257
F3.0
sS'210'
p2258
F3.811710959082829
sS'1074'
p2259
F3.377763199093471
sS'952'
p2260
F0.0
sS'133'
p2261
F4.242648846848726
sS'131'
p2262
F2.0
sS'90'
p2263
F0.0
sS'496'
p2264
F3.8905843525935677
ssS'805'
p2265
(dp2266
S'216'
p2267
F4.080413341581153
sS'217'
p2268
F2.3844231142522734
sS'214'
p2269
F3.5514226269090927
sS'761'
p2270
F4.0
sS'212'
p2271
F0.0
sS'213'
p2272
F4.2575275510361426
sS'210'
p2273
F3.503914818682729
sS'665'
p2274
F2.9999999999999996
sS'45'
p2275
F4.073106628316167
sS'768'
p2276
F0.0
ssS'804'
p2277
(dp2278
S'216'
p2279
F3.8723803569109143
sS'768'
p2280
F0.0
sS'215'
p2281
F3.556366032029026
sS'212'
p2282
F0.0
sS'213'
p2283
F3.8331896903746623
sS'210'
p2284
F4.044269010750028
sS'211'
p2285
F4.122806402247962
sS'763'
p2286
F3.073319755600814
sS'664'
p2287
F3.8229840837563054
sS'663'
p2288
F4.141488927889542
ss.